
xv6-user/_usertests:     file format elf64-littleriscv


Disassembly of section .text:

0000000000000000 <copyinstr1>:
}

// what if you pass ridiculous string pointers to system calls?
void
copyinstr1(char *s)
{
       0:	1141                	addi	sp,sp,-16
       2:	e406                	sd	ra,8(sp)
       4:	e022                	sd	s0,0(sp)
       6:	0800                	addi	s0,sp,16
  uint64 addrs[] = { 0x80000000LL, 0xffffffffffffffff };

  for(int ai = 0; ai < 2; ai++){
    uint64 addr = addrs[ai];

    int fd = open((char *)addr, O_CREATE|O_WRONLY);
       8:	20100593          	li	a1,513
       c:	4505                	li	a0,1
       e:	057e                	slli	a0,a0,0x1f
      10:	00005097          	auipc	ra,0x5
      14:	938080e7          	jalr	-1736(ra) # 4948 <open>
    if(fd >= 0){
      18:	02055063          	bgez	a0,38 <copyinstr1+0x38>
    int fd = open((char *)addr, O_CREATE|O_WRONLY);
      1c:	20100593          	li	a1,513
      20:	557d                	li	a0,-1
      22:	00005097          	auipc	ra,0x5
      26:	926080e7          	jalr	-1754(ra) # 4948 <open>
    uint64 addr = addrs[ai];
      2a:	55fd                	li	a1,-1
    if(fd >= 0){
      2c:	00055863          	bgez	a0,3c <copyinstr1+0x3c>
      printf("open(%p) returned %d, not -1\n", addr, fd);
      exit(1);
    }
  }
}
      30:	60a2                	ld	ra,8(sp)
      32:	6402                	ld	s0,0(sp)
      34:	0141                	addi	sp,sp,16
      36:	8082                	ret
    uint64 addr = addrs[ai];
      38:	4585                	li	a1,1
      3a:	05fe                	slli	a1,a1,0x1f
      printf("open(%p) returned %d, not -1\n", addr, fd);
      3c:	862a                	mv	a2,a0
      3e:	00005517          	auipc	a0,0x5
      42:	0da50513          	addi	a0,a0,218 # 5118 <malloc+0x3b4>
      46:	00005097          	auipc	ra,0x5
      4a:	c60080e7          	jalr	-928(ra) # 4ca6 <printf>
      exit(1);
      4e:	4505                	li	a0,1
      50:	00005097          	auipc	ra,0x5
      54:	8b8080e7          	jalr	-1864(ra) # 4908 <exit>

0000000000000058 <validatetest>:
  } 
}

void
validatetest(char *s)
{
      58:	7139                	addi	sp,sp,-64
      5a:	fc06                	sd	ra,56(sp)
      5c:	f822                	sd	s0,48(sp)
      5e:	f426                	sd	s1,40(sp)
      60:	f04a                	sd	s2,32(sp)
      62:	ec4e                	sd	s3,24(sp)
      64:	e852                	sd	s4,16(sp)
      66:	e456                	sd	s5,8(sp)
      68:	e05a                	sd	s6,0(sp)
      6a:	0080                	addi	s0,sp,64
      6c:	8b2a                	mv	s6,a0
  int hi;
  uint64 p;

  hi = 1100*1024;
  for(p = 0; p <= (uint)hi; p += PGSIZE){
      6e:	4481                	li	s1,0
    // try to crash the kernel by passing in a bad string pointer
    if(open((char*)p, O_RDONLY) != -1){
      70:	597d                	li	s2,-1
  for(p = 0; p <= (uint)hi; p += PGSIZE){
      72:	6a05                	lui	s4,0x1
      74:	001149b7          	lui	s3,0x114
    if(open((char*)p, O_RDONLY) != -1){
      78:	4581                	li	a1,0
      7a:	8526                	mv	a0,s1
      7c:	00005097          	auipc	ra,0x5
      80:	8cc080e7          	jalr	-1844(ra) # 4948 <open>
      84:	01251f63          	bne	a0,s2,a2 <validatetest+0x4a>
  for(p = 0; p <= (uint)hi; p += PGSIZE){
      88:	94d2                	add	s1,s1,s4
      8a:	ff3497e3          	bne	s1,s3,78 <validatetest+0x20>
      printf("%s: link should not succeed\n", s);
      printf("bad string:[%s]\n", (char*)p);
      exit(1);
    }
  }
}
      8e:	70e2                	ld	ra,56(sp)
      90:	7442                	ld	s0,48(sp)
      92:	74a2                	ld	s1,40(sp)
      94:	7902                	ld	s2,32(sp)
      96:	69e2                	ld	s3,24(sp)
      98:	6a42                	ld	s4,16(sp)
      9a:	6aa2                	ld	s5,8(sp)
      9c:	6b02                	ld	s6,0(sp)
      9e:	6121                	addi	sp,sp,64
      a0:	8082                	ret
      printf("%s: link should not succeed\n", s);
      a2:	85da                	mv	a1,s6
      a4:	00005517          	auipc	a0,0x5
      a8:	09450513          	addi	a0,a0,148 # 5138 <malloc+0x3d4>
      ac:	00005097          	auipc	ra,0x5
      b0:	bfa080e7          	jalr	-1030(ra) # 4ca6 <printf>
      printf("bad string:[%s]\n", (char*)p);
      b4:	85a6                	mv	a1,s1
      b6:	00005517          	auipc	a0,0x5
      ba:	0a250513          	addi	a0,a0,162 # 5158 <malloc+0x3f4>
      be:	00005097          	auipc	ra,0x5
      c2:	be8080e7          	jalr	-1048(ra) # 4ca6 <printf>
      exit(1);
      c6:	4505                	li	a0,1
      c8:	00005097          	auipc	ra,0x5
      cc:	840080e7          	jalr	-1984(ra) # 4908 <exit>

00000000000000d0 <bsstest>:
void
bsstest(char *s)
{
  int i;

  for(i = 0; i < sizeof(uninit); i++){
      d0:	00008797          	auipc	a5,0x8
      d4:	04078793          	addi	a5,a5,64 # 8110 <uninit>
      d8:	0000a697          	auipc	a3,0xa
      dc:	74868693          	addi	a3,a3,1864 # a820 <buf>
    if(uninit[i] != '\0'){
      e0:	0007c703          	lbu	a4,0(a5)
      e4:	e709                	bnez	a4,ee <bsstest+0x1e>
  for(i = 0; i < sizeof(uninit); i++){
      e6:	0785                	addi	a5,a5,1
      e8:	fed79ce3          	bne	a5,a3,e0 <bsstest+0x10>
      ec:	8082                	ret
{
      ee:	1141                	addi	sp,sp,-16
      f0:	e406                	sd	ra,8(sp)
      f2:	e022                	sd	s0,0(sp)
      f4:	0800                	addi	s0,sp,16
      printf("%s: bss test failed\n", s);
      f6:	85aa                	mv	a1,a0
      f8:	00005517          	auipc	a0,0x5
      fc:	07850513          	addi	a0,a0,120 # 5170 <malloc+0x40c>
     100:	00005097          	auipc	ra,0x5
     104:	ba6080e7          	jalr	-1114(ra) # 4ca6 <printf>
      exit(1);
     108:	4505                	li	a0,1
     10a:	00004097          	auipc	ra,0x4
     10e:	7fe080e7          	jalr	2046(ra) # 4908 <exit>

0000000000000112 <opentest>:
{
     112:	1101                	addi	sp,sp,-32
     114:	ec06                	sd	ra,24(sp)
     116:	e822                	sd	s0,16(sp)
     118:	e426                	sd	s1,8(sp)
     11a:	1000                	addi	s0,sp,32
     11c:	84aa                	mv	s1,a0
  fd = open("echo", 0);
     11e:	4581                	li	a1,0
     120:	00005517          	auipc	a0,0x5
     124:	06850513          	addi	a0,a0,104 # 5188 <malloc+0x424>
     128:	00005097          	auipc	ra,0x5
     12c:	820080e7          	jalr	-2016(ra) # 4948 <open>
  if(fd < 0){
     130:	02054663          	bltz	a0,15c <opentest+0x4a>
  close(fd);
     134:	00004097          	auipc	ra,0x4
     138:	7fc080e7          	jalr	2044(ra) # 4930 <close>
  fd = open("doesnotexist", 0);
     13c:	4581                	li	a1,0
     13e:	00005517          	auipc	a0,0x5
     142:	06a50513          	addi	a0,a0,106 # 51a8 <malloc+0x444>
     146:	00005097          	auipc	ra,0x5
     14a:	802080e7          	jalr	-2046(ra) # 4948 <open>
  if(fd >= 0){
     14e:	02055563          	bgez	a0,178 <opentest+0x66>
}
     152:	60e2                	ld	ra,24(sp)
     154:	6442                	ld	s0,16(sp)
     156:	64a2                	ld	s1,8(sp)
     158:	6105                	addi	sp,sp,32
     15a:	8082                	ret
    printf("%s: open echo failed!\n", s);
     15c:	85a6                	mv	a1,s1
     15e:	00005517          	auipc	a0,0x5
     162:	03250513          	addi	a0,a0,50 # 5190 <malloc+0x42c>
     166:	00005097          	auipc	ra,0x5
     16a:	b40080e7          	jalr	-1216(ra) # 4ca6 <printf>
    exit(1);
     16e:	4505                	li	a0,1
     170:	00004097          	auipc	ra,0x4
     174:	798080e7          	jalr	1944(ra) # 4908 <exit>
    printf("%s: open doesnotexist succeeded!\n", s);
     178:	85a6                	mv	a1,s1
     17a:	00005517          	auipc	a0,0x5
     17e:	03e50513          	addi	a0,a0,62 # 51b8 <malloc+0x454>
     182:	00005097          	auipc	ra,0x5
     186:	b24080e7          	jalr	-1244(ra) # 4ca6 <printf>
    exit(1);
     18a:	4505                	li	a0,1
     18c:	00004097          	auipc	ra,0x4
     190:	77c080e7          	jalr	1916(ra) # 4908 <exit>

0000000000000194 <truncate2>:
{
     194:	7179                	addi	sp,sp,-48
     196:	f406                	sd	ra,40(sp)
     198:	f022                	sd	s0,32(sp)
     19a:	ec26                	sd	s1,24(sp)
     19c:	e84a                	sd	s2,16(sp)
     19e:	e44e                	sd	s3,8(sp)
     1a0:	1800                	addi	s0,sp,48
     1a2:	89aa                	mv	s3,a0
  remove("truncfile");
     1a4:	00005517          	auipc	a0,0x5
     1a8:	03c50513          	addi	a0,a0,60 # 51e0 <malloc+0x47c>
     1ac:	00005097          	auipc	ra,0x5
     1b0:	804080e7          	jalr	-2044(ra) # 49b0 <remove>
  int fd1 = open("truncfile", O_CREATE|O_TRUNC|O_WRONLY);
     1b4:	60100593          	li	a1,1537
     1b8:	00005517          	auipc	a0,0x5
     1bc:	02850513          	addi	a0,a0,40 # 51e0 <malloc+0x47c>
     1c0:	00004097          	auipc	ra,0x4
     1c4:	788080e7          	jalr	1928(ra) # 4948 <open>
     1c8:	84aa                	mv	s1,a0
  write(fd1, "abcd", 4);
     1ca:	4611                	li	a2,4
     1cc:	00005597          	auipc	a1,0x5
     1d0:	02458593          	addi	a1,a1,36 # 51f0 <malloc+0x48c>
     1d4:	00004097          	auipc	ra,0x4
     1d8:	754080e7          	jalr	1876(ra) # 4928 <write>
  int fd2 = open("truncfile", O_TRUNC|O_WRONLY);
     1dc:	40100593          	li	a1,1025
     1e0:	00005517          	auipc	a0,0x5
     1e4:	00050513          	mv	a0,a0
     1e8:	00004097          	auipc	ra,0x4
     1ec:	760080e7          	jalr	1888(ra) # 4948 <open>
     1f0:	892a                	mv	s2,a0
  int n = write(fd1, "x", 1);
     1f2:	4605                	li	a2,1
     1f4:	00005597          	auipc	a1,0x5
     1f8:	00458593          	addi	a1,a1,4 # 51f8 <malloc+0x494>
     1fc:	8526                	mv	a0,s1
     1fe:	00004097          	auipc	ra,0x4
     202:	72a080e7          	jalr	1834(ra) # 4928 <write>
  if(n != -1){
     206:	57fd                	li	a5,-1
     208:	02f51b63          	bne	a0,a5,23e <truncate2+0xaa>
  remove("truncfile");
     20c:	00005517          	auipc	a0,0x5
     210:	fd450513          	addi	a0,a0,-44 # 51e0 <malloc+0x47c>
     214:	00004097          	auipc	ra,0x4
     218:	79c080e7          	jalr	1948(ra) # 49b0 <remove>
  close(fd1);
     21c:	8526                	mv	a0,s1
     21e:	00004097          	auipc	ra,0x4
     222:	712080e7          	jalr	1810(ra) # 4930 <close>
  close(fd2);
     226:	854a                	mv	a0,s2
     228:	00004097          	auipc	ra,0x4
     22c:	708080e7          	jalr	1800(ra) # 4930 <close>
}
     230:	70a2                	ld	ra,40(sp)
     232:	7402                	ld	s0,32(sp)
     234:	64e2                	ld	s1,24(sp)
     236:	6942                	ld	s2,16(sp)
     238:	69a2                	ld	s3,8(sp)
     23a:	6145                	addi	sp,sp,48
     23c:	8082                	ret
    printf("%s: write returned %d, expected -1\n", s, n);
     23e:	862a                	mv	a2,a0
     240:	85ce                	mv	a1,s3
     242:	00005517          	auipc	a0,0x5
     246:	fbe50513          	addi	a0,a0,-66 # 5200 <malloc+0x49c>
     24a:	00005097          	auipc	ra,0x5
     24e:	a5c080e7          	jalr	-1444(ra) # 4ca6 <printf>
    exit(1);
     252:	4505                	li	a0,1
     254:	00004097          	auipc	ra,0x4
     258:	6b4080e7          	jalr	1716(ra) # 4908 <exit>

000000000000025c <createtest>:
{
     25c:	7179                	addi	sp,sp,-48
     25e:	f406                	sd	ra,40(sp)
     260:	f022                	sd	s0,32(sp)
     262:	ec26                	sd	s1,24(sp)
     264:	e84a                	sd	s2,16(sp)
     266:	e44e                	sd	s3,8(sp)
     268:	1800                	addi	s0,sp,48
  name[0] = 'a';
     26a:	00007797          	auipc	a5,0x7
     26e:	d9678793          	addi	a5,a5,-618 # 7000 <name>
     272:	06100713          	li	a4,97
     276:	00e78023          	sb	a4,0(a5)
  name[2] = '\0';
     27a:	00078123          	sb	zero,2(a5)
     27e:	03000493          	li	s1,48
    name[1] = '0' + i;
     282:	893e                	mv	s2,a5
  for(i = 0; i < N; i++){
     284:	06400993          	li	s3,100
    name[1] = '0' + i;
     288:	009900a3          	sb	s1,1(s2)
    fd = open(name, O_CREATE|O_RDWR);
     28c:	20200593          	li	a1,514
     290:	854a                	mv	a0,s2
     292:	00004097          	auipc	ra,0x4
     296:	6b6080e7          	jalr	1718(ra) # 4948 <open>
    close(fd);
     29a:	00004097          	auipc	ra,0x4
     29e:	696080e7          	jalr	1686(ra) # 4930 <close>
  for(i = 0; i < N; i++){
     2a2:	2485                	addiw	s1,s1,1
     2a4:	0ff4f493          	andi	s1,s1,255
     2a8:	ff3490e3          	bne	s1,s3,288 <createtest+0x2c>
  name[0] = 'a';
     2ac:	00007797          	auipc	a5,0x7
     2b0:	d5478793          	addi	a5,a5,-684 # 7000 <name>
     2b4:	06100713          	li	a4,97
     2b8:	00e78023          	sb	a4,0(a5)
  name[2] = '\0';
     2bc:	00078123          	sb	zero,2(a5)
     2c0:	03000493          	li	s1,48
    name[1] = '0' + i;
     2c4:	893e                	mv	s2,a5
  for(i = 0; i < N; i++){
     2c6:	06400993          	li	s3,100
    name[1] = '0' + i;
     2ca:	009900a3          	sb	s1,1(s2)
    remove(name);
     2ce:	854a                	mv	a0,s2
     2d0:	00004097          	auipc	ra,0x4
     2d4:	6e0080e7          	jalr	1760(ra) # 49b0 <remove>
  for(i = 0; i < N; i++){
     2d8:	2485                	addiw	s1,s1,1
     2da:	0ff4f493          	andi	s1,s1,255
     2de:	ff3496e3          	bne	s1,s3,2ca <createtest+0x6e>
}
     2e2:	70a2                	ld	ra,40(sp)
     2e4:	7402                	ld	s0,32(sp)
     2e6:	64e2                	ld	s1,24(sp)
     2e8:	6942                	ld	s2,16(sp)
     2ea:	69a2                	ld	s3,8(sp)
     2ec:	6145                	addi	sp,sp,48
     2ee:	8082                	ret

00000000000002f0 <bigwrite>:
{
     2f0:	715d                	addi	sp,sp,-80
     2f2:	e486                	sd	ra,72(sp)
     2f4:	e0a2                	sd	s0,64(sp)
     2f6:	fc26                	sd	s1,56(sp)
     2f8:	f84a                	sd	s2,48(sp)
     2fa:	f44e                	sd	s3,40(sp)
     2fc:	f052                	sd	s4,32(sp)
     2fe:	ec56                	sd	s5,24(sp)
     300:	e85a                	sd	s6,16(sp)
     302:	e45e                	sd	s7,8(sp)
     304:	0880                	addi	s0,sp,80
     306:	8baa                	mv	s7,a0
  remove("bigwrite");
     308:	00005517          	auipc	a0,0x5
     30c:	cd850513          	addi	a0,a0,-808 # 4fe0 <malloc+0x27c>
     310:	00004097          	auipc	ra,0x4
     314:	6a0080e7          	jalr	1696(ra) # 49b0 <remove>
  for(sz = 499; sz < (MAXOPBLOCKS+2)*BSIZE; sz += 471){
     318:	1f300493          	li	s1,499
    fd = open("bigwrite", O_CREATE | O_RDWR);
     31c:	00005a97          	auipc	s5,0x5
     320:	cc4a8a93          	addi	s5,s5,-828 # 4fe0 <malloc+0x27c>
      int cc = write(fd, buf, sz);
     324:	0000aa17          	auipc	s4,0xa
     328:	4fca0a13          	addi	s4,s4,1276 # a820 <buf>
  for(sz = 499; sz < (MAXOPBLOCKS+2)*BSIZE; sz += 471){
     32c:	6b09                	lui	s6,0x2
     32e:	807b0b13          	addi	s6,s6,-2041 # 1807 <forkfork+0x45>
    fd = open("bigwrite", O_CREATE | O_RDWR);
     332:	20200593          	li	a1,514
     336:	8556                	mv	a0,s5
     338:	00004097          	auipc	ra,0x4
     33c:	610080e7          	jalr	1552(ra) # 4948 <open>
     340:	892a                	mv	s2,a0
    if(fd < 0){
     342:	04054d63          	bltz	a0,39c <bigwrite+0xac>
      int cc = write(fd, buf, sz);
     346:	8626                	mv	a2,s1
     348:	85d2                	mv	a1,s4
     34a:	00004097          	auipc	ra,0x4
     34e:	5de080e7          	jalr	1502(ra) # 4928 <write>
     352:	89aa                	mv	s3,a0
      if(cc != sz){
     354:	06a49463          	bne	s1,a0,3bc <bigwrite+0xcc>
      int cc = write(fd, buf, sz);
     358:	8626                	mv	a2,s1
     35a:	85d2                	mv	a1,s4
     35c:	854a                	mv	a0,s2
     35e:	00004097          	auipc	ra,0x4
     362:	5ca080e7          	jalr	1482(ra) # 4928 <write>
      if(cc != sz){
     366:	04951963          	bne	a0,s1,3b8 <bigwrite+0xc8>
    close(fd);
     36a:	854a                	mv	a0,s2
     36c:	00004097          	auipc	ra,0x4
     370:	5c4080e7          	jalr	1476(ra) # 4930 <close>
    remove("bigwrite");
     374:	8556                	mv	a0,s5
     376:	00004097          	auipc	ra,0x4
     37a:	63a080e7          	jalr	1594(ra) # 49b0 <remove>
  for(sz = 499; sz < (MAXOPBLOCKS+2)*BSIZE; sz += 471){
     37e:	1d74849b          	addiw	s1,s1,471
     382:	fb6498e3          	bne	s1,s6,332 <bigwrite+0x42>
}
     386:	60a6                	ld	ra,72(sp)
     388:	6406                	ld	s0,64(sp)
     38a:	74e2                	ld	s1,56(sp)
     38c:	7942                	ld	s2,48(sp)
     38e:	79a2                	ld	s3,40(sp)
     390:	7a02                	ld	s4,32(sp)
     392:	6ae2                	ld	s5,24(sp)
     394:	6b42                	ld	s6,16(sp)
     396:	6ba2                	ld	s7,8(sp)
     398:	6161                	addi	sp,sp,80
     39a:	8082                	ret
      printf("%s: cannot create bigwrite\n", s);
     39c:	85de                	mv	a1,s7
     39e:	00005517          	auipc	a0,0x5
     3a2:	e8a50513          	addi	a0,a0,-374 # 5228 <malloc+0x4c4>
     3a6:	00005097          	auipc	ra,0x5
     3aa:	900080e7          	jalr	-1792(ra) # 4ca6 <printf>
      exit(1);
     3ae:	4505                	li	a0,1
     3b0:	00004097          	auipc	ra,0x4
     3b4:	558080e7          	jalr	1368(ra) # 4908 <exit>
     3b8:	84ce                	mv	s1,s3
      int cc = write(fd, buf, sz);
     3ba:	89aa                	mv	s3,a0
        printf("%s: write(%d) ret %d\n", s, sz, cc);
     3bc:	86ce                	mv	a3,s3
     3be:	8626                	mv	a2,s1
     3c0:	85de                	mv	a1,s7
     3c2:	00005517          	auipc	a0,0x5
     3c6:	e8650513          	addi	a0,a0,-378 # 5248 <malloc+0x4e4>
     3ca:	00005097          	auipc	ra,0x5
     3ce:	8dc080e7          	jalr	-1828(ra) # 4ca6 <printf>
        exit(1);
     3d2:	4505                	li	a0,1
     3d4:	00004097          	auipc	ra,0x4
     3d8:	534080e7          	jalr	1332(ra) # 4908 <exit>

00000000000003dc <badwrite>:
// file is deleted? if the kernel has this bug, it will panic: balloc:
// out of blocks. assumed_free may need to be raised to be more than
// the number of free blocks. this test takes a long time.
void
badwrite(char *s)
{
     3dc:	7179                	addi	sp,sp,-48
     3de:	f406                	sd	ra,40(sp)
     3e0:	f022                	sd	s0,32(sp)
     3e2:	ec26                	sd	s1,24(sp)
     3e4:	e84a                	sd	s2,16(sp)
     3e6:	e44e                	sd	s3,8(sp)
     3e8:	e052                	sd	s4,0(sp)
     3ea:	1800                	addi	s0,sp,48
  int assumed_free = 600;
  
  remove("junk");
     3ec:	00005517          	auipc	a0,0x5
     3f0:	e7450513          	addi	a0,a0,-396 # 5260 <malloc+0x4fc>
     3f4:	00004097          	auipc	ra,0x4
     3f8:	5bc080e7          	jalr	1468(ra) # 49b0 <remove>
     3fc:	25800913          	li	s2,600
  for(int i = 0; i < assumed_free; i++){
    int fd = open("junk", O_CREATE|O_WRONLY);
     400:	00005997          	auipc	s3,0x5
     404:	e6098993          	addi	s3,s3,-416 # 5260 <malloc+0x4fc>
    if(fd < 0){
      printf("open junk failed\n");
      exit(1);
    }
    write(fd, (char*)0xffffffffffL, 1);
     408:	5a7d                	li	s4,-1
     40a:	018a5a13          	srli	s4,s4,0x18
    int fd = open("junk", O_CREATE|O_WRONLY);
     40e:	20100593          	li	a1,513
     412:	854e                	mv	a0,s3
     414:	00004097          	auipc	ra,0x4
     418:	534080e7          	jalr	1332(ra) # 4948 <open>
     41c:	84aa                	mv	s1,a0
    if(fd < 0){
     41e:	06054b63          	bltz	a0,494 <badwrite+0xb8>
    write(fd, (char*)0xffffffffffL, 1);
     422:	4605                	li	a2,1
     424:	85d2                	mv	a1,s4
     426:	00004097          	auipc	ra,0x4
     42a:	502080e7          	jalr	1282(ra) # 4928 <write>
    close(fd);
     42e:	8526                	mv	a0,s1
     430:	00004097          	auipc	ra,0x4
     434:	500080e7          	jalr	1280(ra) # 4930 <close>
    remove("junk");
     438:	854e                	mv	a0,s3
     43a:	00004097          	auipc	ra,0x4
     43e:	576080e7          	jalr	1398(ra) # 49b0 <remove>
  for(int i = 0; i < assumed_free; i++){
     442:	397d                	addiw	s2,s2,-1
     444:	fc0915e3          	bnez	s2,40e <badwrite+0x32>
  }

  int fd = open("junk", O_CREATE|O_WRONLY);
     448:	20100593          	li	a1,513
     44c:	00005517          	auipc	a0,0x5
     450:	e1450513          	addi	a0,a0,-492 # 5260 <malloc+0x4fc>
     454:	00004097          	auipc	ra,0x4
     458:	4f4080e7          	jalr	1268(ra) # 4948 <open>
     45c:	84aa                	mv	s1,a0
  if(fd < 0){
     45e:	04054863          	bltz	a0,4ae <badwrite+0xd2>
    printf("open junk failed\n");
    exit(1);
  }
  if(write(fd, "x", 1) != 1){
     462:	4605                	li	a2,1
     464:	00005597          	auipc	a1,0x5
     468:	d9458593          	addi	a1,a1,-620 # 51f8 <malloc+0x494>
     46c:	00004097          	auipc	ra,0x4
     470:	4bc080e7          	jalr	1212(ra) # 4928 <write>
     474:	4785                	li	a5,1
     476:	04f50963          	beq	a0,a5,4c8 <badwrite+0xec>
    printf("write failed\n");
     47a:	00005517          	auipc	a0,0x5
     47e:	e0650513          	addi	a0,a0,-506 # 5280 <malloc+0x51c>
     482:	00005097          	auipc	ra,0x5
     486:	824080e7          	jalr	-2012(ra) # 4ca6 <printf>
    exit(1);
     48a:	4505                	li	a0,1
     48c:	00004097          	auipc	ra,0x4
     490:	47c080e7          	jalr	1148(ra) # 4908 <exit>
      printf("open junk failed\n");
     494:	00005517          	auipc	a0,0x5
     498:	dd450513          	addi	a0,a0,-556 # 5268 <malloc+0x504>
     49c:	00005097          	auipc	ra,0x5
     4a0:	80a080e7          	jalr	-2038(ra) # 4ca6 <printf>
      exit(1);
     4a4:	4505                	li	a0,1
     4a6:	00004097          	auipc	ra,0x4
     4aa:	462080e7          	jalr	1122(ra) # 4908 <exit>
    printf("open junk failed\n");
     4ae:	00005517          	auipc	a0,0x5
     4b2:	dba50513          	addi	a0,a0,-582 # 5268 <malloc+0x504>
     4b6:	00004097          	auipc	ra,0x4
     4ba:	7f0080e7          	jalr	2032(ra) # 4ca6 <printf>
    exit(1);
     4be:	4505                	li	a0,1
     4c0:	00004097          	auipc	ra,0x4
     4c4:	448080e7          	jalr	1096(ra) # 4908 <exit>
  }
  close(fd);
     4c8:	8526                	mv	a0,s1
     4ca:	00004097          	auipc	ra,0x4
     4ce:	466080e7          	jalr	1126(ra) # 4930 <close>
  remove("junk");
     4d2:	00005517          	auipc	a0,0x5
     4d6:	d8e50513          	addi	a0,a0,-626 # 5260 <malloc+0x4fc>
     4da:	00004097          	auipc	ra,0x4
     4de:	4d6080e7          	jalr	1238(ra) # 49b0 <remove>

  exit(0);
     4e2:	4501                	li	a0,0
     4e4:	00004097          	auipc	ra,0x4
     4e8:	424080e7          	jalr	1060(ra) # 4908 <exit>

00000000000004ec <copyin>:
{
     4ec:	7159                	addi	sp,sp,-112
     4ee:	f486                	sd	ra,104(sp)
     4f0:	f0a2                	sd	s0,96(sp)
     4f2:	eca6                	sd	s1,88(sp)
     4f4:	e8ca                	sd	s2,80(sp)
     4f6:	e4ce                	sd	s3,72(sp)
     4f8:	e0d2                	sd	s4,64(sp)
     4fa:	fc56                	sd	s5,56(sp)
     4fc:	1880                	addi	s0,sp,112
  uint64 addrs[] = { 0x80000000LL, 0xffffffffffffffff };
     4fe:	4785                	li	a5,1
     500:	07fe                	slli	a5,a5,0x1f
     502:	faf43823          	sd	a5,-80(s0)
     506:	57fd                	li	a5,-1
     508:	faf43c23          	sd	a5,-72(s0)
  for(int ai = 0; ai < 2; ai++){
     50c:	fb040913          	addi	s2,s0,-80
     510:	fc040793          	addi	a5,s0,-64
     514:	f8f43c23          	sd	a5,-104(s0)
    int fd = open("copyin1", O_CREATE|O_WRONLY);
     518:	00005a17          	auipc	s4,0x5
     51c:	d78a0a13          	addi	s4,s4,-648 # 5290 <malloc+0x52c>
    if(pipe(fds) < 0){
     520:	fa840a93          	addi	s5,s0,-88
    uint64 addr = addrs[ai];
     524:	00093983          	ld	s3,0(s2)
    int fd = open("copyin1", O_CREATE|O_WRONLY);
     528:	20100593          	li	a1,513
     52c:	8552                	mv	a0,s4
     52e:	00004097          	auipc	ra,0x4
     532:	41a080e7          	jalr	1050(ra) # 4948 <open>
     536:	84aa                	mv	s1,a0
    if(fd < 0){
     538:	08054863          	bltz	a0,5c8 <copyin+0xdc>
    int n = write(fd, (void*)addr, 8192);
     53c:	6609                	lui	a2,0x2
     53e:	85ce                	mv	a1,s3
     540:	00004097          	auipc	ra,0x4
     544:	3e8080e7          	jalr	1000(ra) # 4928 <write>
    if(n >= 0){
     548:	08055d63          	bgez	a0,5e2 <copyin+0xf6>
    close(fd);
     54c:	8526                	mv	a0,s1
     54e:	00004097          	auipc	ra,0x4
     552:	3e2080e7          	jalr	994(ra) # 4930 <close>
    remove("copyin1");
     556:	8552                	mv	a0,s4
     558:	00004097          	auipc	ra,0x4
     55c:	458080e7          	jalr	1112(ra) # 49b0 <remove>
    n = write(1, (char*)addr, 8192);
     560:	6609                	lui	a2,0x2
     562:	85ce                	mv	a1,s3
     564:	4505                	li	a0,1
     566:	00004097          	auipc	ra,0x4
     56a:	3c2080e7          	jalr	962(ra) # 4928 <write>
    if(n > 0){
     56e:	08a04963          	bgtz	a0,600 <copyin+0x114>
    if(pipe(fds) < 0){
     572:	8556                	mv	a0,s5
     574:	00004097          	auipc	ra,0x4
     578:	3a4080e7          	jalr	932(ra) # 4918 <pipe>
     57c:	0a054163          	bltz	a0,61e <copyin+0x132>
    n = write(fds[1], (char*)addr, 8192);
     580:	6609                	lui	a2,0x2
     582:	85ce                	mv	a1,s3
     584:	fac42503          	lw	a0,-84(s0)
     588:	00004097          	auipc	ra,0x4
     58c:	3a0080e7          	jalr	928(ra) # 4928 <write>
    if(n > 0){
     590:	0aa04463          	bgtz	a0,638 <copyin+0x14c>
    close(fds[0]);
     594:	fa842503          	lw	a0,-88(s0)
     598:	00004097          	auipc	ra,0x4
     59c:	398080e7          	jalr	920(ra) # 4930 <close>
    close(fds[1]);
     5a0:	fac42503          	lw	a0,-84(s0)
     5a4:	00004097          	auipc	ra,0x4
     5a8:	38c080e7          	jalr	908(ra) # 4930 <close>
  for(int ai = 0; ai < 2; ai++){
     5ac:	0921                	addi	s2,s2,8
     5ae:	f9843783          	ld	a5,-104(s0)
     5b2:	f6f919e3          	bne	s2,a5,524 <copyin+0x38>
}
     5b6:	70a6                	ld	ra,104(sp)
     5b8:	7406                	ld	s0,96(sp)
     5ba:	64e6                	ld	s1,88(sp)
     5bc:	6946                	ld	s2,80(sp)
     5be:	69a6                	ld	s3,72(sp)
     5c0:	6a06                	ld	s4,64(sp)
     5c2:	7ae2                	ld	s5,56(sp)
     5c4:	6165                	addi	sp,sp,112
     5c6:	8082                	ret
      printf("open(copyin1) failed\n");
     5c8:	00005517          	auipc	a0,0x5
     5cc:	cd050513          	addi	a0,a0,-816 # 5298 <malloc+0x534>
     5d0:	00004097          	auipc	ra,0x4
     5d4:	6d6080e7          	jalr	1750(ra) # 4ca6 <printf>
      exit(1);
     5d8:	4505                	li	a0,1
     5da:	00004097          	auipc	ra,0x4
     5de:	32e080e7          	jalr	814(ra) # 4908 <exit>
      printf("write(fd, %p, 8192) returned %d, not -1\n", addr, n);
     5e2:	862a                	mv	a2,a0
     5e4:	85ce                	mv	a1,s3
     5e6:	00005517          	auipc	a0,0x5
     5ea:	cca50513          	addi	a0,a0,-822 # 52b0 <malloc+0x54c>
     5ee:	00004097          	auipc	ra,0x4
     5f2:	6b8080e7          	jalr	1720(ra) # 4ca6 <printf>
      exit(1);
     5f6:	4505                	li	a0,1
     5f8:	00004097          	auipc	ra,0x4
     5fc:	310080e7          	jalr	784(ra) # 4908 <exit>
      printf("write(1, %p, 8192) returned %d, not -1 or 0\n", addr, n);
     600:	862a                	mv	a2,a0
     602:	85ce                	mv	a1,s3
     604:	00005517          	auipc	a0,0x5
     608:	cdc50513          	addi	a0,a0,-804 # 52e0 <malloc+0x57c>
     60c:	00004097          	auipc	ra,0x4
     610:	69a080e7          	jalr	1690(ra) # 4ca6 <printf>
      exit(1);
     614:	4505                	li	a0,1
     616:	00004097          	auipc	ra,0x4
     61a:	2f2080e7          	jalr	754(ra) # 4908 <exit>
      printf("pipe() failed\n");
     61e:	00005517          	auipc	a0,0x5
     622:	cf250513          	addi	a0,a0,-782 # 5310 <malloc+0x5ac>
     626:	00004097          	auipc	ra,0x4
     62a:	680080e7          	jalr	1664(ra) # 4ca6 <printf>
      exit(1);
     62e:	4505                	li	a0,1
     630:	00004097          	auipc	ra,0x4
     634:	2d8080e7          	jalr	728(ra) # 4908 <exit>
      printf("write(pipe, %p, 8192) returned %d, not -1 or 0\n", addr, n);
     638:	862a                	mv	a2,a0
     63a:	85ce                	mv	a1,s3
     63c:	00005517          	auipc	a0,0x5
     640:	ce450513          	addi	a0,a0,-796 # 5320 <malloc+0x5bc>
     644:	00004097          	auipc	ra,0x4
     648:	662080e7          	jalr	1634(ra) # 4ca6 <printf>
      exit(1);
     64c:	4505                	li	a0,1
     64e:	00004097          	auipc	ra,0x4
     652:	2ba080e7          	jalr	698(ra) # 4908 <exit>

0000000000000656 <copyout>:
{
     656:	7159                	addi	sp,sp,-112
     658:	f486                	sd	ra,104(sp)
     65a:	f0a2                	sd	s0,96(sp)
     65c:	eca6                	sd	s1,88(sp)
     65e:	e8ca                	sd	s2,80(sp)
     660:	e4ce                	sd	s3,72(sp)
     662:	e0d2                	sd	s4,64(sp)
     664:	fc56                	sd	s5,56(sp)
     666:	f85a                	sd	s6,48(sp)
     668:	1880                	addi	s0,sp,112
  uint64 addrs[] = { 0x80000000LL, 0xffffffffffffffff };
     66a:	4785                	li	a5,1
     66c:	07fe                	slli	a5,a5,0x1f
     66e:	faf43823          	sd	a5,-80(s0)
     672:	57fd                	li	a5,-1
     674:	faf43c23          	sd	a5,-72(s0)
  for(int ai = 0; ai < 2; ai++){
     678:	fb040913          	addi	s2,s0,-80
     67c:	fc040793          	addi	a5,s0,-64
     680:	f8f43c23          	sd	a5,-104(s0)
    int fd = open("README", 0);
     684:	00005a97          	auipc	s5,0x5
     688:	ccca8a93          	addi	s5,s5,-820 # 5350 <malloc+0x5ec>
    if(pipe(fds) < 0){
     68c:	fa840a13          	addi	s4,s0,-88
    n = write(fds[1], "x", 1);
     690:	00005b17          	auipc	s6,0x5
     694:	b68b0b13          	addi	s6,s6,-1176 # 51f8 <malloc+0x494>
    uint64 addr = addrs[ai];
     698:	00093983          	ld	s3,0(s2)
    int fd = open("README", 0);
     69c:	4581                	li	a1,0
     69e:	8556                	mv	a0,s5
     6a0:	00004097          	auipc	ra,0x4
     6a4:	2a8080e7          	jalr	680(ra) # 4948 <open>
     6a8:	84aa                	mv	s1,a0
    if(fd < 0){
     6aa:	08054663          	bltz	a0,736 <copyout+0xe0>
    int n = read(fd, (void*)addr, 8192);
     6ae:	6609                	lui	a2,0x2
     6b0:	85ce                	mv	a1,s3
     6b2:	00004097          	auipc	ra,0x4
     6b6:	26e080e7          	jalr	622(ra) # 4920 <read>
    if(n > 0){
     6ba:	08a04b63          	bgtz	a0,750 <copyout+0xfa>
    close(fd);
     6be:	8526                	mv	a0,s1
     6c0:	00004097          	auipc	ra,0x4
     6c4:	270080e7          	jalr	624(ra) # 4930 <close>
    if(pipe(fds) < 0){
     6c8:	8552                	mv	a0,s4
     6ca:	00004097          	auipc	ra,0x4
     6ce:	24e080e7          	jalr	590(ra) # 4918 <pipe>
     6d2:	08054e63          	bltz	a0,76e <copyout+0x118>
    n = write(fds[1], "x", 1);
     6d6:	4605                	li	a2,1
     6d8:	85da                	mv	a1,s6
     6da:	fac42503          	lw	a0,-84(s0)
     6de:	00004097          	auipc	ra,0x4
     6e2:	24a080e7          	jalr	586(ra) # 4928 <write>
    if(n != 1){
     6e6:	4785                	li	a5,1
     6e8:	0af51063          	bne	a0,a5,788 <copyout+0x132>
    n = read(fds[0], (void*)addr, 8192);
     6ec:	6609                	lui	a2,0x2
     6ee:	85ce                	mv	a1,s3
     6f0:	fa842503          	lw	a0,-88(s0)
     6f4:	00004097          	auipc	ra,0x4
     6f8:	22c080e7          	jalr	556(ra) # 4920 <read>
    if(n > 0){
     6fc:	0aa04363          	bgtz	a0,7a2 <copyout+0x14c>
    close(fds[0]);
     700:	fa842503          	lw	a0,-88(s0)
     704:	00004097          	auipc	ra,0x4
     708:	22c080e7          	jalr	556(ra) # 4930 <close>
    close(fds[1]);
     70c:	fac42503          	lw	a0,-84(s0)
     710:	00004097          	auipc	ra,0x4
     714:	220080e7          	jalr	544(ra) # 4930 <close>
  for(int ai = 0; ai < 2; ai++){
     718:	0921                	addi	s2,s2,8
     71a:	f9843783          	ld	a5,-104(s0)
     71e:	f6f91de3          	bne	s2,a5,698 <copyout+0x42>
}
     722:	70a6                	ld	ra,104(sp)
     724:	7406                	ld	s0,96(sp)
     726:	64e6                	ld	s1,88(sp)
     728:	6946                	ld	s2,80(sp)
     72a:	69a6                	ld	s3,72(sp)
     72c:	6a06                	ld	s4,64(sp)
     72e:	7ae2                	ld	s5,56(sp)
     730:	7b42                	ld	s6,48(sp)
     732:	6165                	addi	sp,sp,112
     734:	8082                	ret
      printf("open(README) failed\n");
     736:	00005517          	auipc	a0,0x5
     73a:	c2250513          	addi	a0,a0,-990 # 5358 <malloc+0x5f4>
     73e:	00004097          	auipc	ra,0x4
     742:	568080e7          	jalr	1384(ra) # 4ca6 <printf>
      exit(1);
     746:	4505                	li	a0,1
     748:	00004097          	auipc	ra,0x4
     74c:	1c0080e7          	jalr	448(ra) # 4908 <exit>
      printf("read(fd, %p, 8192) returned %d, not -1 or 0\n", addr, n);
     750:	862a                	mv	a2,a0
     752:	85ce                	mv	a1,s3
     754:	00005517          	auipc	a0,0x5
     758:	c1c50513          	addi	a0,a0,-996 # 5370 <malloc+0x60c>
     75c:	00004097          	auipc	ra,0x4
     760:	54a080e7          	jalr	1354(ra) # 4ca6 <printf>
      exit(1);
     764:	4505                	li	a0,1
     766:	00004097          	auipc	ra,0x4
     76a:	1a2080e7          	jalr	418(ra) # 4908 <exit>
      printf("pipe() failed\n");
     76e:	00005517          	auipc	a0,0x5
     772:	ba250513          	addi	a0,a0,-1118 # 5310 <malloc+0x5ac>
     776:	00004097          	auipc	ra,0x4
     77a:	530080e7          	jalr	1328(ra) # 4ca6 <printf>
      exit(1);
     77e:	4505                	li	a0,1
     780:	00004097          	auipc	ra,0x4
     784:	188080e7          	jalr	392(ra) # 4908 <exit>
      printf("pipe write failed\n");
     788:	00005517          	auipc	a0,0x5
     78c:	c1850513          	addi	a0,a0,-1000 # 53a0 <malloc+0x63c>
     790:	00004097          	auipc	ra,0x4
     794:	516080e7          	jalr	1302(ra) # 4ca6 <printf>
      exit(1);
     798:	4505                	li	a0,1
     79a:	00004097          	auipc	ra,0x4
     79e:	16e080e7          	jalr	366(ra) # 4908 <exit>
      printf("read(pipe, %p, 8192) returned %d, not -1 or 0\n", addr, n);
     7a2:	862a                	mv	a2,a0
     7a4:	85ce                	mv	a1,s3
     7a6:	00005517          	auipc	a0,0x5
     7aa:	c1250513          	addi	a0,a0,-1006 # 53b8 <malloc+0x654>
     7ae:	00004097          	auipc	ra,0x4
     7b2:	4f8080e7          	jalr	1272(ra) # 4ca6 <printf>
      exit(1);
     7b6:	4505                	li	a0,1
     7b8:	00004097          	auipc	ra,0x4
     7bc:	150080e7          	jalr	336(ra) # 4908 <exit>

00000000000007c0 <truncate1>:
{
     7c0:	711d                	addi	sp,sp,-96
     7c2:	ec86                	sd	ra,88(sp)
     7c4:	e8a2                	sd	s0,80(sp)
     7c6:	e4a6                	sd	s1,72(sp)
     7c8:	e0ca                	sd	s2,64(sp)
     7ca:	fc4e                	sd	s3,56(sp)
     7cc:	f852                	sd	s4,48(sp)
     7ce:	f456                	sd	s5,40(sp)
     7d0:	1080                	addi	s0,sp,96
     7d2:	8aaa                	mv	s5,a0
  remove("truncfile");
     7d4:	00005517          	auipc	a0,0x5
     7d8:	a0c50513          	addi	a0,a0,-1524 # 51e0 <malloc+0x47c>
     7dc:	00004097          	auipc	ra,0x4
     7e0:	1d4080e7          	jalr	468(ra) # 49b0 <remove>
  int fd1 = open("truncfile", O_CREATE|O_WRONLY|O_TRUNC);
     7e4:	60100593          	li	a1,1537
     7e8:	00005517          	auipc	a0,0x5
     7ec:	9f850513          	addi	a0,a0,-1544 # 51e0 <malloc+0x47c>
     7f0:	00004097          	auipc	ra,0x4
     7f4:	158080e7          	jalr	344(ra) # 4948 <open>
     7f8:	84aa                	mv	s1,a0
  write(fd1, "abcd", 4);
     7fa:	4611                	li	a2,4
     7fc:	00005597          	auipc	a1,0x5
     800:	9f458593          	addi	a1,a1,-1548 # 51f0 <malloc+0x48c>
     804:	00004097          	auipc	ra,0x4
     808:	124080e7          	jalr	292(ra) # 4928 <write>
  close(fd1);
     80c:	8526                	mv	a0,s1
     80e:	00004097          	auipc	ra,0x4
     812:	122080e7          	jalr	290(ra) # 4930 <close>
  int fd2 = open("truncfile", O_RDONLY);
     816:	4581                	li	a1,0
     818:	00005517          	auipc	a0,0x5
     81c:	9c850513          	addi	a0,a0,-1592 # 51e0 <malloc+0x47c>
     820:	00004097          	auipc	ra,0x4
     824:	128080e7          	jalr	296(ra) # 4948 <open>
     828:	84aa                	mv	s1,a0
  int n = read(fd2, buf, sizeof(buf));
     82a:	02000613          	li	a2,32
     82e:	fa040593          	addi	a1,s0,-96
     832:	00004097          	auipc	ra,0x4
     836:	0ee080e7          	jalr	238(ra) # 4920 <read>
  if(n != 4){
     83a:	4791                	li	a5,4
     83c:	0cf51e63          	bne	a0,a5,918 <truncate1+0x158>
  fd1 = open("truncfile", O_WRONLY|O_TRUNC);
     840:	40100593          	li	a1,1025
     844:	00005517          	auipc	a0,0x5
     848:	99c50513          	addi	a0,a0,-1636 # 51e0 <malloc+0x47c>
     84c:	00004097          	auipc	ra,0x4
     850:	0fc080e7          	jalr	252(ra) # 4948 <open>
     854:	89aa                	mv	s3,a0
  int fd3 = open("truncfile", O_RDONLY);
     856:	4581                	li	a1,0
     858:	00005517          	auipc	a0,0x5
     85c:	98850513          	addi	a0,a0,-1656 # 51e0 <malloc+0x47c>
     860:	00004097          	auipc	ra,0x4
     864:	0e8080e7          	jalr	232(ra) # 4948 <open>
     868:	892a                	mv	s2,a0
  n = read(fd3, buf, sizeof(buf));
     86a:	02000613          	li	a2,32
     86e:	fa040593          	addi	a1,s0,-96
     872:	00004097          	auipc	ra,0x4
     876:	0ae080e7          	jalr	174(ra) # 4920 <read>
     87a:	8a2a                	mv	s4,a0
  if(n != 0){
     87c:	ed4d                	bnez	a0,936 <truncate1+0x176>
  n = read(fd2, buf, sizeof(buf));
     87e:	02000613          	li	a2,32
     882:	fa040593          	addi	a1,s0,-96
     886:	8526                	mv	a0,s1
     888:	00004097          	auipc	ra,0x4
     88c:	098080e7          	jalr	152(ra) # 4920 <read>
     890:	8a2a                	mv	s4,a0
  if(n != 0){
     892:	e971                	bnez	a0,966 <truncate1+0x1a6>
  write(fd1, "abcdef", 6);
     894:	4619                	li	a2,6
     896:	00005597          	auipc	a1,0x5
     89a:	bb258593          	addi	a1,a1,-1102 # 5448 <malloc+0x6e4>
     89e:	854e                	mv	a0,s3
     8a0:	00004097          	auipc	ra,0x4
     8a4:	088080e7          	jalr	136(ra) # 4928 <write>
  n = read(fd3, buf, sizeof(buf));
     8a8:	02000613          	li	a2,32
     8ac:	fa040593          	addi	a1,s0,-96
     8b0:	854a                	mv	a0,s2
     8b2:	00004097          	auipc	ra,0x4
     8b6:	06e080e7          	jalr	110(ra) # 4920 <read>
  if(n != 6){
     8ba:	4799                	li	a5,6
     8bc:	0cf51d63          	bne	a0,a5,996 <truncate1+0x1d6>
  n = read(fd2, buf, sizeof(buf));
     8c0:	02000613          	li	a2,32
     8c4:	fa040593          	addi	a1,s0,-96
     8c8:	8526                	mv	a0,s1
     8ca:	00004097          	auipc	ra,0x4
     8ce:	056080e7          	jalr	86(ra) # 4920 <read>
  if(n != 2){
     8d2:	4789                	li	a5,2
     8d4:	0ef51063          	bne	a0,a5,9b4 <truncate1+0x1f4>
  remove("truncfile");
     8d8:	00005517          	auipc	a0,0x5
     8dc:	90850513          	addi	a0,a0,-1784 # 51e0 <malloc+0x47c>
     8e0:	00004097          	auipc	ra,0x4
     8e4:	0d0080e7          	jalr	208(ra) # 49b0 <remove>
  close(fd1);
     8e8:	854e                	mv	a0,s3
     8ea:	00004097          	auipc	ra,0x4
     8ee:	046080e7          	jalr	70(ra) # 4930 <close>
  close(fd2);
     8f2:	8526                	mv	a0,s1
     8f4:	00004097          	auipc	ra,0x4
     8f8:	03c080e7          	jalr	60(ra) # 4930 <close>
  close(fd3);
     8fc:	854a                	mv	a0,s2
     8fe:	00004097          	auipc	ra,0x4
     902:	032080e7          	jalr	50(ra) # 4930 <close>
}
     906:	60e6                	ld	ra,88(sp)
     908:	6446                	ld	s0,80(sp)
     90a:	64a6                	ld	s1,72(sp)
     90c:	6906                	ld	s2,64(sp)
     90e:	79e2                	ld	s3,56(sp)
     910:	7a42                	ld	s4,48(sp)
     912:	7aa2                	ld	s5,40(sp)
     914:	6125                	addi	sp,sp,96
     916:	8082                	ret
    printf("%s: read %d bytes, wanted 4\n", s, n);
     918:	862a                	mv	a2,a0
     91a:	85d6                	mv	a1,s5
     91c:	00005517          	auipc	a0,0x5
     920:	acc50513          	addi	a0,a0,-1332 # 53e8 <malloc+0x684>
     924:	00004097          	auipc	ra,0x4
     928:	382080e7          	jalr	898(ra) # 4ca6 <printf>
    exit(1);
     92c:	4505                	li	a0,1
     92e:	00004097          	auipc	ra,0x4
     932:	fda080e7          	jalr	-38(ra) # 4908 <exit>
    printf("aaa fd3=%d\n", fd3);
     936:	85ca                	mv	a1,s2
     938:	00005517          	auipc	a0,0x5
     93c:	ad050513          	addi	a0,a0,-1328 # 5408 <malloc+0x6a4>
     940:	00004097          	auipc	ra,0x4
     944:	366080e7          	jalr	870(ra) # 4ca6 <printf>
    printf("%s: read %d bytes, wanted 0\n", s, n);
     948:	8652                	mv	a2,s4
     94a:	85d6                	mv	a1,s5
     94c:	00005517          	auipc	a0,0x5
     950:	acc50513          	addi	a0,a0,-1332 # 5418 <malloc+0x6b4>
     954:	00004097          	auipc	ra,0x4
     958:	352080e7          	jalr	850(ra) # 4ca6 <printf>
    exit(1);
     95c:	4505                	li	a0,1
     95e:	00004097          	auipc	ra,0x4
     962:	faa080e7          	jalr	-86(ra) # 4908 <exit>
    printf("bbb fd2=%d\n", fd2);
     966:	85a6                	mv	a1,s1
     968:	00005517          	auipc	a0,0x5
     96c:	ad050513          	addi	a0,a0,-1328 # 5438 <malloc+0x6d4>
     970:	00004097          	auipc	ra,0x4
     974:	336080e7          	jalr	822(ra) # 4ca6 <printf>
    printf("%s: read %d bytes, wanted 0\n", s, n);
     978:	8652                	mv	a2,s4
     97a:	85d6                	mv	a1,s5
     97c:	00005517          	auipc	a0,0x5
     980:	a9c50513          	addi	a0,a0,-1380 # 5418 <malloc+0x6b4>
     984:	00004097          	auipc	ra,0x4
     988:	322080e7          	jalr	802(ra) # 4ca6 <printf>
    exit(1);
     98c:	4505                	li	a0,1
     98e:	00004097          	auipc	ra,0x4
     992:	f7a080e7          	jalr	-134(ra) # 4908 <exit>
    printf("%s: read %d bytes, wanted 6\n", s, n);
     996:	862a                	mv	a2,a0
     998:	85d6                	mv	a1,s5
     99a:	00005517          	auipc	a0,0x5
     99e:	ab650513          	addi	a0,a0,-1354 # 5450 <malloc+0x6ec>
     9a2:	00004097          	auipc	ra,0x4
     9a6:	304080e7          	jalr	772(ra) # 4ca6 <printf>
    exit(1);
     9aa:	4505                	li	a0,1
     9ac:	00004097          	auipc	ra,0x4
     9b0:	f5c080e7          	jalr	-164(ra) # 4908 <exit>
    printf("%s: read %d bytes, wanted 2\n", s, n);
     9b4:	862a                	mv	a2,a0
     9b6:	85d6                	mv	a1,s5
     9b8:	00005517          	auipc	a0,0x5
     9bc:	ab850513          	addi	a0,a0,-1352 # 5470 <malloc+0x70c>
     9c0:	00004097          	auipc	ra,0x4
     9c4:	2e6080e7          	jalr	742(ra) # 4ca6 <printf>
    exit(1);
     9c8:	4505                	li	a0,1
     9ca:	00004097          	auipc	ra,0x4
     9ce:	f3e080e7          	jalr	-194(ra) # 4908 <exit>

00000000000009d2 <writetest>:
{
     9d2:	7139                	addi	sp,sp,-64
     9d4:	fc06                	sd	ra,56(sp)
     9d6:	f822                	sd	s0,48(sp)
     9d8:	f426                	sd	s1,40(sp)
     9da:	f04a                	sd	s2,32(sp)
     9dc:	ec4e                	sd	s3,24(sp)
     9de:	e852                	sd	s4,16(sp)
     9e0:	e456                	sd	s5,8(sp)
     9e2:	e05a                	sd	s6,0(sp)
     9e4:	0080                	addi	s0,sp,64
     9e6:	8b2a                	mv	s6,a0
  fd = open("small", O_CREATE|O_RDWR);
     9e8:	20200593          	li	a1,514
     9ec:	00005517          	auipc	a0,0x5
     9f0:	aa450513          	addi	a0,a0,-1372 # 5490 <malloc+0x72c>
     9f4:	00004097          	auipc	ra,0x4
     9f8:	f54080e7          	jalr	-172(ra) # 4948 <open>
  if(fd < 0){
     9fc:	0a054d63          	bltz	a0,ab6 <writetest+0xe4>
     a00:	892a                	mv	s2,a0
     a02:	4481                	li	s1,0
    if(write(fd, "aaaaaaaaaa", SZ) != SZ){
     a04:	00005997          	auipc	s3,0x5
     a08:	ab498993          	addi	s3,s3,-1356 # 54b8 <malloc+0x754>
    if(write(fd, "bbbbbbbbbb", SZ) != SZ){
     a0c:	00005a97          	auipc	s5,0x5
     a10:	ae4a8a93          	addi	s5,s5,-1308 # 54f0 <malloc+0x78c>
  for(i = 0; i < N; i++){
     a14:	06400a13          	li	s4,100
    if(write(fd, "aaaaaaaaaa", SZ) != SZ){
     a18:	4629                	li	a2,10
     a1a:	85ce                	mv	a1,s3
     a1c:	854a                	mv	a0,s2
     a1e:	00004097          	auipc	ra,0x4
     a22:	f0a080e7          	jalr	-246(ra) # 4928 <write>
     a26:	47a9                	li	a5,10
     a28:	0af51563          	bne	a0,a5,ad2 <writetest+0x100>
    if(write(fd, "bbbbbbbbbb", SZ) != SZ){
     a2c:	4629                	li	a2,10
     a2e:	85d6                	mv	a1,s5
     a30:	854a                	mv	a0,s2
     a32:	00004097          	auipc	ra,0x4
     a36:	ef6080e7          	jalr	-266(ra) # 4928 <write>
     a3a:	47a9                	li	a5,10
     a3c:	0af51963          	bne	a0,a5,aee <writetest+0x11c>
  for(i = 0; i < N; i++){
     a40:	2485                	addiw	s1,s1,1
     a42:	fd449be3          	bne	s1,s4,a18 <writetest+0x46>
  close(fd);
     a46:	854a                	mv	a0,s2
     a48:	00004097          	auipc	ra,0x4
     a4c:	ee8080e7          	jalr	-280(ra) # 4930 <close>
  fd = open("small", O_RDONLY);
     a50:	4581                	li	a1,0
     a52:	00005517          	auipc	a0,0x5
     a56:	a3e50513          	addi	a0,a0,-1474 # 5490 <malloc+0x72c>
     a5a:	00004097          	auipc	ra,0x4
     a5e:	eee080e7          	jalr	-274(ra) # 4948 <open>
     a62:	84aa                	mv	s1,a0
  if(fd < 0){
     a64:	0a054363          	bltz	a0,b0a <writetest+0x138>
  i = read(fd, buf, N*SZ*2);
     a68:	7d000613          	li	a2,2000
     a6c:	0000a597          	auipc	a1,0xa
     a70:	db458593          	addi	a1,a1,-588 # a820 <buf>
     a74:	00004097          	auipc	ra,0x4
     a78:	eac080e7          	jalr	-340(ra) # 4920 <read>
  if(i != N*SZ*2){
     a7c:	7d000793          	li	a5,2000
     a80:	0af51363          	bne	a0,a5,b26 <writetest+0x154>
  close(fd);
     a84:	8526                	mv	a0,s1
     a86:	00004097          	auipc	ra,0x4
     a8a:	eaa080e7          	jalr	-342(ra) # 4930 <close>
  if(remove("small") < 0){
     a8e:	00005517          	auipc	a0,0x5
     a92:	a0250513          	addi	a0,a0,-1534 # 5490 <malloc+0x72c>
     a96:	00004097          	auipc	ra,0x4
     a9a:	f1a080e7          	jalr	-230(ra) # 49b0 <remove>
     a9e:	0a054263          	bltz	a0,b42 <writetest+0x170>
}
     aa2:	70e2                	ld	ra,56(sp)
     aa4:	7442                	ld	s0,48(sp)
     aa6:	74a2                	ld	s1,40(sp)
     aa8:	7902                	ld	s2,32(sp)
     aaa:	69e2                	ld	s3,24(sp)
     aac:	6a42                	ld	s4,16(sp)
     aae:	6aa2                	ld	s5,8(sp)
     ab0:	6b02                	ld	s6,0(sp)
     ab2:	6121                	addi	sp,sp,64
     ab4:	8082                	ret
    printf("%s: error: creat small failed!\n", s);
     ab6:	85da                	mv	a1,s6
     ab8:	00005517          	auipc	a0,0x5
     abc:	9e050513          	addi	a0,a0,-1568 # 5498 <malloc+0x734>
     ac0:	00004097          	auipc	ra,0x4
     ac4:	1e6080e7          	jalr	486(ra) # 4ca6 <printf>
    exit(1);
     ac8:	4505                	li	a0,1
     aca:	00004097          	auipc	ra,0x4
     ace:	e3e080e7          	jalr	-450(ra) # 4908 <exit>
      printf("%s: error: write aa %d new file failed\n", i);
     ad2:	85a6                	mv	a1,s1
     ad4:	00005517          	auipc	a0,0x5
     ad8:	9f450513          	addi	a0,a0,-1548 # 54c8 <malloc+0x764>
     adc:	00004097          	auipc	ra,0x4
     ae0:	1ca080e7          	jalr	458(ra) # 4ca6 <printf>
      exit(1);
     ae4:	4505                	li	a0,1
     ae6:	00004097          	auipc	ra,0x4
     aea:	e22080e7          	jalr	-478(ra) # 4908 <exit>
      printf("%s: error: write bb %d new file failed\n", i);
     aee:	85a6                	mv	a1,s1
     af0:	00005517          	auipc	a0,0x5
     af4:	a1050513          	addi	a0,a0,-1520 # 5500 <malloc+0x79c>
     af8:	00004097          	auipc	ra,0x4
     afc:	1ae080e7          	jalr	430(ra) # 4ca6 <printf>
      exit(1);
     b00:	4505                	li	a0,1
     b02:	00004097          	auipc	ra,0x4
     b06:	e06080e7          	jalr	-506(ra) # 4908 <exit>
    printf("%s: error: open small failed!\n", s);
     b0a:	85da                	mv	a1,s6
     b0c:	00005517          	auipc	a0,0x5
     b10:	a1c50513          	addi	a0,a0,-1508 # 5528 <malloc+0x7c4>
     b14:	00004097          	auipc	ra,0x4
     b18:	192080e7          	jalr	402(ra) # 4ca6 <printf>
    exit(1);
     b1c:	4505                	li	a0,1
     b1e:	00004097          	auipc	ra,0x4
     b22:	dea080e7          	jalr	-534(ra) # 4908 <exit>
    printf("%s: read failed\n", s);
     b26:	85da                	mv	a1,s6
     b28:	00005517          	auipc	a0,0x5
     b2c:	a2050513          	addi	a0,a0,-1504 # 5548 <malloc+0x7e4>
     b30:	00004097          	auipc	ra,0x4
     b34:	176080e7          	jalr	374(ra) # 4ca6 <printf>
    exit(1);
     b38:	4505                	li	a0,1
     b3a:	00004097          	auipc	ra,0x4
     b3e:	dce080e7          	jalr	-562(ra) # 4908 <exit>
    printf("%s: remove small failed\n", s);
     b42:	85da                	mv	a1,s6
     b44:	00005517          	auipc	a0,0x5
     b48:	a1c50513          	addi	a0,a0,-1508 # 5560 <malloc+0x7fc>
     b4c:	00004097          	auipc	ra,0x4
     b50:	15a080e7          	jalr	346(ra) # 4ca6 <printf>
    exit(1);
     b54:	4505                	li	a0,1
     b56:	00004097          	auipc	ra,0x4
     b5a:	db2080e7          	jalr	-590(ra) # 4908 <exit>

0000000000000b5e <writebig>:
{
     b5e:	7179                	addi	sp,sp,-48
     b60:	f406                	sd	ra,40(sp)
     b62:	f022                	sd	s0,32(sp)
     b64:	ec26                	sd	s1,24(sp)
     b66:	e84a                	sd	s2,16(sp)
     b68:	e44e                	sd	s3,8(sp)
     b6a:	e052                	sd	s4,0(sp)
     b6c:	1800                	addi	s0,sp,48
     b6e:	8a2a                	mv	s4,a0
  fd = open("big", O_CREATE|O_RDWR);
     b70:	20200593          	li	a1,514
     b74:	00005517          	auipc	a0,0x5
     b78:	a0c50513          	addi	a0,a0,-1524 # 5580 <malloc+0x81c>
     b7c:	00004097          	auipc	ra,0x4
     b80:	dcc080e7          	jalr	-564(ra) # 4948 <open>
     b84:	89aa                	mv	s3,a0
  for(i = 0; i < MAXFILE; i++){
     b86:	4481                	li	s1,0
    ((int*)buf)[0] = i;
     b88:	0000a917          	auipc	s2,0xa
     b8c:	c9890913          	addi	s2,s2,-872 # a820 <buf>
  if(fd < 0){
     b90:	06054e63          	bltz	a0,c0c <writebig+0xae>
    ((int*)buf)[0] = i;
     b94:	00992023          	sw	s1,0(s2)
    if(write(fd, buf, BSIZE) != BSIZE){
     b98:	20000613          	li	a2,512
     b9c:	85ca                	mv	a1,s2
     b9e:	854e                	mv	a0,s3
     ba0:	00004097          	auipc	ra,0x4
     ba4:	d88080e7          	jalr	-632(ra) # 4928 <write>
     ba8:	20000793          	li	a5,512
     bac:	06f51e63          	bne	a0,a5,c28 <writebig+0xca>
  for(i = 0; i < MAXFILE; i++){
     bb0:	2485                	addiw	s1,s1,1
     bb2:	20000793          	li	a5,512
     bb6:	fcf49fe3          	bne	s1,a5,b94 <writebig+0x36>
  close(fd);
     bba:	854e                	mv	a0,s3
     bbc:	00004097          	auipc	ra,0x4
     bc0:	d74080e7          	jalr	-652(ra) # 4930 <close>
  fd = open("big", O_RDONLY);
     bc4:	4581                	li	a1,0
     bc6:	00005517          	auipc	a0,0x5
     bca:	9ba50513          	addi	a0,a0,-1606 # 5580 <malloc+0x81c>
     bce:	00004097          	auipc	ra,0x4
     bd2:	d7a080e7          	jalr	-646(ra) # 4948 <open>
     bd6:	89aa                	mv	s3,a0
  n = 0;
     bd8:	4481                	li	s1,0
    i = read(fd, buf, BSIZE);
     bda:	0000a917          	auipc	s2,0xa
     bde:	c4690913          	addi	s2,s2,-954 # a820 <buf>
  if(fd < 0){
     be2:	06054163          	bltz	a0,c44 <writebig+0xe6>
    i = read(fd, buf, BSIZE);
     be6:	20000613          	li	a2,512
     bea:	85ca                	mv	a1,s2
     bec:	854e                	mv	a0,s3
     bee:	00004097          	auipc	ra,0x4
     bf2:	d32080e7          	jalr	-718(ra) # 4920 <read>
    if(i == 0){
     bf6:	c52d                	beqz	a0,c60 <writebig+0x102>
    } else if(i != BSIZE){
     bf8:	20000793          	li	a5,512
     bfc:	0af51c63          	bne	a0,a5,cb4 <writebig+0x156>
    if(((int*)buf)[0] != n){
     c00:	00092603          	lw	a2,0(s2)
     c04:	0c961663          	bne	a2,s1,cd0 <writebig+0x172>
    n++;
     c08:	2485                	addiw	s1,s1,1
    i = read(fd, buf, BSIZE);
     c0a:	bff1                	j	be6 <writebig+0x88>
    printf("%s: error: creat big failed!\n", s);
     c0c:	85d2                	mv	a1,s4
     c0e:	00005517          	auipc	a0,0x5
     c12:	97a50513          	addi	a0,a0,-1670 # 5588 <malloc+0x824>
     c16:	00004097          	auipc	ra,0x4
     c1a:	090080e7          	jalr	144(ra) # 4ca6 <printf>
    exit(1);
     c1e:	4505                	li	a0,1
     c20:	00004097          	auipc	ra,0x4
     c24:	ce8080e7          	jalr	-792(ra) # 4908 <exit>
      printf("%s: error: write big file failed\n", i);
     c28:	85a6                	mv	a1,s1
     c2a:	00005517          	auipc	a0,0x5
     c2e:	97e50513          	addi	a0,a0,-1666 # 55a8 <malloc+0x844>
     c32:	00004097          	auipc	ra,0x4
     c36:	074080e7          	jalr	116(ra) # 4ca6 <printf>
      exit(1);
     c3a:	4505                	li	a0,1
     c3c:	00004097          	auipc	ra,0x4
     c40:	ccc080e7          	jalr	-820(ra) # 4908 <exit>
    printf("%s: error: open big failed!\n", s);
     c44:	85d2                	mv	a1,s4
     c46:	00005517          	auipc	a0,0x5
     c4a:	98a50513          	addi	a0,a0,-1654 # 55d0 <malloc+0x86c>
     c4e:	00004097          	auipc	ra,0x4
     c52:	058080e7          	jalr	88(ra) # 4ca6 <printf>
    exit(1);
     c56:	4505                	li	a0,1
     c58:	00004097          	auipc	ra,0x4
     c5c:	cb0080e7          	jalr	-848(ra) # 4908 <exit>
      if(n == MAXFILE - 1){
     c60:	1ff00793          	li	a5,511
     c64:	02f48963          	beq	s1,a5,c96 <writebig+0x138>
  close(fd);
     c68:	854e                	mv	a0,s3
     c6a:	00004097          	auipc	ra,0x4
     c6e:	cc6080e7          	jalr	-826(ra) # 4930 <close>
  if(remove("big") < 0){
     c72:	00005517          	auipc	a0,0x5
     c76:	90e50513          	addi	a0,a0,-1778 # 5580 <malloc+0x81c>
     c7a:	00004097          	auipc	ra,0x4
     c7e:	d36080e7          	jalr	-714(ra) # 49b0 <remove>
     c82:	06054563          	bltz	a0,cec <writebig+0x18e>
}
     c86:	70a2                	ld	ra,40(sp)
     c88:	7402                	ld	s0,32(sp)
     c8a:	64e2                	ld	s1,24(sp)
     c8c:	6942                	ld	s2,16(sp)
     c8e:	69a2                	ld	s3,8(sp)
     c90:	6a02                	ld	s4,0(sp)
     c92:	6145                	addi	sp,sp,48
     c94:	8082                	ret
        printf("%s: read only %d blocks from big", n);
     c96:	1ff00593          	li	a1,511
     c9a:	00005517          	auipc	a0,0x5
     c9e:	95650513          	addi	a0,a0,-1706 # 55f0 <malloc+0x88c>
     ca2:	00004097          	auipc	ra,0x4
     ca6:	004080e7          	jalr	4(ra) # 4ca6 <printf>
        exit(1);
     caa:	4505                	li	a0,1
     cac:	00004097          	auipc	ra,0x4
     cb0:	c5c080e7          	jalr	-932(ra) # 4908 <exit>
      printf("%s: read failed %d\n", i);
     cb4:	85aa                	mv	a1,a0
     cb6:	00005517          	auipc	a0,0x5
     cba:	96250513          	addi	a0,a0,-1694 # 5618 <malloc+0x8b4>
     cbe:	00004097          	auipc	ra,0x4
     cc2:	fe8080e7          	jalr	-24(ra) # 4ca6 <printf>
      exit(1);
     cc6:	4505                	li	a0,1
     cc8:	00004097          	auipc	ra,0x4
     ccc:	c40080e7          	jalr	-960(ra) # 4908 <exit>
      printf("%s: read content of block %d is %d\n",
     cd0:	85a6                	mv	a1,s1
     cd2:	00005517          	auipc	a0,0x5
     cd6:	95e50513          	addi	a0,a0,-1698 # 5630 <malloc+0x8cc>
     cda:	00004097          	auipc	ra,0x4
     cde:	fcc080e7          	jalr	-52(ra) # 4ca6 <printf>
      exit(1);
     ce2:	4505                	li	a0,1
     ce4:	00004097          	auipc	ra,0x4
     ce8:	c24080e7          	jalr	-988(ra) # 4908 <exit>
    printf("%s: remove big failed\n", s);
     cec:	85d2                	mv	a1,s4
     cee:	00005517          	auipc	a0,0x5
     cf2:	96a50513          	addi	a0,a0,-1686 # 5658 <malloc+0x8f4>
     cf6:	00004097          	auipc	ra,0x4
     cfa:	fb0080e7          	jalr	-80(ra) # 4ca6 <printf>
    exit(1);
     cfe:	4505                	li	a0,1
     d00:	00004097          	auipc	ra,0x4
     d04:	c08080e7          	jalr	-1016(ra) # 4908 <exit>

0000000000000d08 <removeread>:
{
     d08:	7179                	addi	sp,sp,-48
     d0a:	f406                	sd	ra,40(sp)
     d0c:	f022                	sd	s0,32(sp)
     d0e:	ec26                	sd	s1,24(sp)
     d10:	e84a                	sd	s2,16(sp)
     d12:	e44e                	sd	s3,8(sp)
     d14:	1800                	addi	s0,sp,48
     d16:	89aa                	mv	s3,a0
  fd = open("removeread", O_CREATE | O_RDWR);
     d18:	20200593          	li	a1,514
     d1c:	00004517          	auipc	a0,0x4
     d20:	26c50513          	addi	a0,a0,620 # 4f88 <malloc+0x224>
     d24:	00004097          	auipc	ra,0x4
     d28:	c24080e7          	jalr	-988(ra) # 4948 <open>
  if(fd < 0){
     d2c:	0e054763          	bltz	a0,e1a <removeread+0x112>
     d30:	84aa                	mv	s1,a0
  write(fd, "hello", SZ);
     d32:	4615                	li	a2,5
     d34:	00005597          	auipc	a1,0x5
     d38:	95c58593          	addi	a1,a1,-1700 # 5690 <malloc+0x92c>
     d3c:	00004097          	auipc	ra,0x4
     d40:	bec080e7          	jalr	-1044(ra) # 4928 <write>
  close(fd);
     d44:	8526                	mv	a0,s1
     d46:	00004097          	auipc	ra,0x4
     d4a:	bea080e7          	jalr	-1046(ra) # 4930 <close>
  fd = open("removeread", O_RDWR);
     d4e:	4589                	li	a1,2
     d50:	00004517          	auipc	a0,0x4
     d54:	23850513          	addi	a0,a0,568 # 4f88 <malloc+0x224>
     d58:	00004097          	auipc	ra,0x4
     d5c:	bf0080e7          	jalr	-1040(ra) # 4948 <open>
     d60:	84aa                	mv	s1,a0
  if(fd < 0){
     d62:	0c054a63          	bltz	a0,e36 <removeread+0x12e>
  if(remove("removeread") != 0){
     d66:	00004517          	auipc	a0,0x4
     d6a:	22250513          	addi	a0,a0,546 # 4f88 <malloc+0x224>
     d6e:	00004097          	auipc	ra,0x4
     d72:	c42080e7          	jalr	-958(ra) # 49b0 <remove>
     d76:	ed71                	bnez	a0,e52 <removeread+0x14a>
  fd1 = open("removeread", O_CREATE | O_RDWR);
     d78:	20200593          	li	a1,514
     d7c:	00004517          	auipc	a0,0x4
     d80:	20c50513          	addi	a0,a0,524 # 4f88 <malloc+0x224>
     d84:	00004097          	auipc	ra,0x4
     d88:	bc4080e7          	jalr	-1084(ra) # 4948 <open>
     d8c:	892a                	mv	s2,a0
  write(fd1, "yyy", 3);
     d8e:	460d                	li	a2,3
     d90:	00005597          	auipc	a1,0x5
     d94:	94858593          	addi	a1,a1,-1720 # 56d8 <malloc+0x974>
     d98:	00004097          	auipc	ra,0x4
     d9c:	b90080e7          	jalr	-1136(ra) # 4928 <write>
  close(fd1);
     da0:	854a                	mv	a0,s2
     da2:	00004097          	auipc	ra,0x4
     da6:	b8e080e7          	jalr	-1138(ra) # 4930 <close>
  if(read(fd, buf, sizeof(buf)) != SZ){
     daa:	6609                	lui	a2,0x2
     dac:	80060613          	addi	a2,a2,-2048 # 1800 <forkfork+0x3e>
     db0:	0000a597          	auipc	a1,0xa
     db4:	a7058593          	addi	a1,a1,-1424 # a820 <buf>
     db8:	8526                	mv	a0,s1
     dba:	00004097          	auipc	ra,0x4
     dbe:	b66080e7          	jalr	-1178(ra) # 4920 <read>
     dc2:	4795                	li	a5,5
     dc4:	0af51563          	bne	a0,a5,e6e <removeread+0x166>
  if(buf[0] != 'h'){
     dc8:	0000a717          	auipc	a4,0xa
     dcc:	a5874703          	lbu	a4,-1448(a4) # a820 <buf>
     dd0:	06800793          	li	a5,104
     dd4:	0af71b63          	bne	a4,a5,e8a <removeread+0x182>
  if(write(fd, buf, 10) != 10){
     dd8:	4629                	li	a2,10
     dda:	0000a597          	auipc	a1,0xa
     dde:	a4658593          	addi	a1,a1,-1466 # a820 <buf>
     de2:	8526                	mv	a0,s1
     de4:	00004097          	auipc	ra,0x4
     de8:	b44080e7          	jalr	-1212(ra) # 4928 <write>
     dec:	47a9                	li	a5,10
     dee:	0af51c63          	bne	a0,a5,ea6 <removeread+0x19e>
  close(fd);
     df2:	8526                	mv	a0,s1
     df4:	00004097          	auipc	ra,0x4
     df8:	b3c080e7          	jalr	-1220(ra) # 4930 <close>
  remove("removeread");
     dfc:	00004517          	auipc	a0,0x4
     e00:	18c50513          	addi	a0,a0,396 # 4f88 <malloc+0x224>
     e04:	00004097          	auipc	ra,0x4
     e08:	bac080e7          	jalr	-1108(ra) # 49b0 <remove>
}
     e0c:	70a2                	ld	ra,40(sp)
     e0e:	7402                	ld	s0,32(sp)
     e10:	64e2                	ld	s1,24(sp)
     e12:	6942                	ld	s2,16(sp)
     e14:	69a2                	ld	s3,8(sp)
     e16:	6145                	addi	sp,sp,48
     e18:	8082                	ret
    printf("%s: create removeread failed\n", s);
     e1a:	85ce                	mv	a1,s3
     e1c:	00005517          	auipc	a0,0x5
     e20:	85450513          	addi	a0,a0,-1964 # 5670 <malloc+0x90c>
     e24:	00004097          	auipc	ra,0x4
     e28:	e82080e7          	jalr	-382(ra) # 4ca6 <printf>
    exit(1);
     e2c:	4505                	li	a0,1
     e2e:	00004097          	auipc	ra,0x4
     e32:	ada080e7          	jalr	-1318(ra) # 4908 <exit>
    printf("%s: open removeread failed\n", s);
     e36:	85ce                	mv	a1,s3
     e38:	00005517          	auipc	a0,0x5
     e3c:	86050513          	addi	a0,a0,-1952 # 5698 <malloc+0x934>
     e40:	00004097          	auipc	ra,0x4
     e44:	e66080e7          	jalr	-410(ra) # 4ca6 <printf>
    exit(1);
     e48:	4505                	li	a0,1
     e4a:	00004097          	auipc	ra,0x4
     e4e:	abe080e7          	jalr	-1346(ra) # 4908 <exit>
    printf("%s: remove removeread failed\n", s);
     e52:	85ce                	mv	a1,s3
     e54:	00005517          	auipc	a0,0x5
     e58:	86450513          	addi	a0,a0,-1948 # 56b8 <malloc+0x954>
     e5c:	00004097          	auipc	ra,0x4
     e60:	e4a080e7          	jalr	-438(ra) # 4ca6 <printf>
    exit(1);
     e64:	4505                	li	a0,1
     e66:	00004097          	auipc	ra,0x4
     e6a:	aa2080e7          	jalr	-1374(ra) # 4908 <exit>
    printf("%s: removeread read failed", s);
     e6e:	85ce                	mv	a1,s3
     e70:	00005517          	auipc	a0,0x5
     e74:	87050513          	addi	a0,a0,-1936 # 56e0 <malloc+0x97c>
     e78:	00004097          	auipc	ra,0x4
     e7c:	e2e080e7          	jalr	-466(ra) # 4ca6 <printf>
    exit(1);
     e80:	4505                	li	a0,1
     e82:	00004097          	auipc	ra,0x4
     e86:	a86080e7          	jalr	-1402(ra) # 4908 <exit>
    printf("%s: removeread wrong data\n", s);
     e8a:	85ce                	mv	a1,s3
     e8c:	00005517          	auipc	a0,0x5
     e90:	87450513          	addi	a0,a0,-1932 # 5700 <malloc+0x99c>
     e94:	00004097          	auipc	ra,0x4
     e98:	e12080e7          	jalr	-494(ra) # 4ca6 <printf>
    exit(1);
     e9c:	4505                	li	a0,1
     e9e:	00004097          	auipc	ra,0x4
     ea2:	a6a080e7          	jalr	-1430(ra) # 4908 <exit>
    printf("%s: removeread write failed\n", s);
     ea6:	85ce                	mv	a1,s3
     ea8:	00005517          	auipc	a0,0x5
     eac:	87850513          	addi	a0,a0,-1928 # 5720 <malloc+0x9bc>
     eb0:	00004097          	auipc	ra,0x4
     eb4:	df6080e7          	jalr	-522(ra) # 4ca6 <printf>
    exit(1);
     eb8:	4505                	li	a0,1
     eba:	00004097          	auipc	ra,0x4
     ebe:	a4e080e7          	jalr	-1458(ra) # 4908 <exit>

0000000000000ec2 <pgbug>:
{
     ec2:	7179                	addi	sp,sp,-48
     ec4:	f406                	sd	ra,40(sp)
     ec6:	f022                	sd	s0,32(sp)
     ec8:	ec26                	sd	s1,24(sp)
     eca:	1800                	addi	s0,sp,48
  argv[0] = 0;
     ecc:	fc043c23          	sd	zero,-40(s0)
  exec((char*)0xeaeb0b5b00002f5e, argv);
     ed0:	00006497          	auipc	s1,0x6
     ed4:	da04b483          	ld	s1,-608(s1) # 6c70 <malloc+0x1f0c>
     ed8:	fd840593          	addi	a1,s0,-40
     edc:	8526                	mv	a0,s1
     ede:	00004097          	auipc	ra,0x4
     ee2:	a62080e7          	jalr	-1438(ra) # 4940 <exec>
  pipe((int*)0xeaeb0b5b00002f5e);
     ee6:	8526                	mv	a0,s1
     ee8:	00004097          	auipc	ra,0x4
     eec:	a30080e7          	jalr	-1488(ra) # 4918 <pipe>
  exit(0);
     ef0:	4501                	li	a0,0
     ef2:	00004097          	auipc	ra,0x4
     ef6:	a16080e7          	jalr	-1514(ra) # 4908 <exit>

0000000000000efa <badarg>:

// regression test. test whether exec() leaks memory if one of the
// arguments is invalid. the test passes if the kernel doesn't panic.
void
badarg(char *s)
{
     efa:	7139                	addi	sp,sp,-64
     efc:	fc06                	sd	ra,56(sp)
     efe:	f822                	sd	s0,48(sp)
     f00:	f426                	sd	s1,40(sp)
     f02:	f04a                	sd	s2,32(sp)
     f04:	ec4e                	sd	s3,24(sp)
     f06:	e852                	sd	s4,16(sp)
     f08:	0080                	addi	s0,sp,64
     f0a:	64b1                	lui	s1,0xc
     f0c:	35048493          	addi	s1,s1,848 # c350 <__BSS_END__+0x318>
  for(int i = 0; i < 50000; i++){
    char *argv[2];
    argv[0] = (char*)0xffffffff;
     f10:	597d                	li	s2,-1
     f12:	02095913          	srli	s2,s2,0x20
    argv[1] = 0;
    exec("echo", argv);
     f16:	fc040a13          	addi	s4,s0,-64
     f1a:	00004997          	auipc	s3,0x4
     f1e:	26e98993          	addi	s3,s3,622 # 5188 <malloc+0x424>
    argv[0] = (char*)0xffffffff;
     f22:	fd243023          	sd	s2,-64(s0)
    argv[1] = 0;
     f26:	fc043423          	sd	zero,-56(s0)
    exec("echo", argv);
     f2a:	85d2                	mv	a1,s4
     f2c:	854e                	mv	a0,s3
     f2e:	00004097          	auipc	ra,0x4
     f32:	a12080e7          	jalr	-1518(ra) # 4940 <exec>
  for(int i = 0; i < 50000; i++){
     f36:	34fd                	addiw	s1,s1,-1
     f38:	f4ed                	bnez	s1,f22 <badarg+0x28>
  }
  
  exit(0);
     f3a:	4501                	li	a0,0
     f3c:	00004097          	auipc	ra,0x4
     f40:	9cc080e7          	jalr	-1588(ra) # 4908 <exit>

0000000000000f44 <copyinstr2>:
{
     f44:	714d                	addi	sp,sp,-336
     f46:	e686                	sd	ra,328(sp)
     f48:	e2a2                	sd	s0,320(sp)
     f4a:	0a80                	addi	s0,sp,336
  for(int i = 0; i < MAXPATH; i++)
     f4c:	ee840793          	addi	a5,s0,-280
     f50:	fec40693          	addi	a3,s0,-20
    b[i] = 'x';
     f54:	07800713          	li	a4,120
     f58:	00e78023          	sb	a4,0(a5)
  for(int i = 0; i < MAXPATH; i++)
     f5c:	0785                	addi	a5,a5,1
     f5e:	fed79de3          	bne	a5,a3,f58 <copyinstr2+0x14>
  b[MAXPATH] = '\0';
     f62:	fe040623          	sb	zero,-20(s0)
  int ret = remove(b);
     f66:	ee840513          	addi	a0,s0,-280
     f6a:	00004097          	auipc	ra,0x4
     f6e:	a46080e7          	jalr	-1466(ra) # 49b0 <remove>
  if(ret != -1){
     f72:	57fd                	li	a5,-1
     f74:	0cf51663          	bne	a0,a5,1040 <copyinstr2+0xfc>
  int fd = open(b, O_CREATE | O_WRONLY);
     f78:	20100593          	li	a1,513
     f7c:	ee840513          	addi	a0,s0,-280
     f80:	00004097          	auipc	ra,0x4
     f84:	9c8080e7          	jalr	-1592(ra) # 4948 <open>
  if(fd != -1){
     f88:	57fd                	li	a5,-1
     f8a:	0cf51b63          	bne	a0,a5,1060 <copyinstr2+0x11c>
  char *args[] = { "xx", 0 };
     f8e:	00005797          	auipc	a5,0x5
     f92:	3c278793          	addi	a5,a5,962 # 6350 <malloc+0x15ec>
     f96:	ecf43c23          	sd	a5,-296(s0)
     f9a:	ee043023          	sd	zero,-288(s0)
  ret = exec(b, args);
     f9e:	ed840593          	addi	a1,s0,-296
     fa2:	ee840513          	addi	a0,s0,-280
     fa6:	00004097          	auipc	ra,0x4
     faa:	99a080e7          	jalr	-1638(ra) # 4940 <exec>
  if(ret != -1){
     fae:	57fd                	li	a5,-1
     fb0:	0cf51863          	bne	a0,a5,1080 <copyinstr2+0x13c>
  int pid = fork();
     fb4:	00004097          	auipc	ra,0x4
     fb8:	94c080e7          	jalr	-1716(ra) # 4900 <fork>
  if(pid < 0){
     fbc:	0e054263          	bltz	a0,10a0 <copyinstr2+0x15c>
  if(pid == 0){
     fc0:	10051363          	bnez	a0,10c6 <copyinstr2+0x182>
     fc4:	00006797          	auipc	a5,0x6
     fc8:	14478793          	addi	a5,a5,324 # 7108 <big.0>
     fcc:	00007697          	auipc	a3,0x7
     fd0:	13c68693          	addi	a3,a3,316 # 8108 <__global_pointer$+0x908>
      big[i] = 'x';
     fd4:	07800713          	li	a4,120
     fd8:	00e78023          	sb	a4,0(a5)
    for(int i = 0; i < PGSIZE; i++)
     fdc:	0785                	addi	a5,a5,1
     fde:	fed79de3          	bne	a5,a3,fd8 <copyinstr2+0x94>
    big[PGSIZE] = '\0';
     fe2:	00007797          	auipc	a5,0x7
     fe6:	12078323          	sb	zero,294(a5) # 8108 <__global_pointer$+0x908>
    char *args2[] = { big, big, big, 0 };
     fea:	00006797          	auipc	a5,0x6
     fee:	cae78793          	addi	a5,a5,-850 # 6c98 <__DATA_BEGIN__>
     ff2:	6390                	ld	a2,0(a5)
     ff4:	6794                	ld	a3,8(a5)
     ff6:	6b98                	ld	a4,16(a5)
     ff8:	6f9c                	ld	a5,24(a5)
     ffa:	eac43823          	sd	a2,-336(s0)
     ffe:	ead43c23          	sd	a3,-328(s0)
    1002:	ece43023          	sd	a4,-320(s0)
    1006:	ecf43423          	sd	a5,-312(s0)
    ret = exec("echo", args2);
    100a:	eb040593          	addi	a1,s0,-336
    100e:	00004517          	auipc	a0,0x4
    1012:	17a50513          	addi	a0,a0,378 # 5188 <malloc+0x424>
    1016:	00004097          	auipc	ra,0x4
    101a:	92a080e7          	jalr	-1750(ra) # 4940 <exec>
    if(ret != -1){
    101e:	57fd                	li	a5,-1
    1020:	08f50d63          	beq	a0,a5,10ba <copyinstr2+0x176>
      printf("exec(echo, BIG) returned %d, not -1\n", fd);
    1024:	55fd                	li	a1,-1
    1026:	00004517          	auipc	a0,0x4
    102a:	77a50513          	addi	a0,a0,1914 # 57a0 <malloc+0xa3c>
    102e:	00004097          	auipc	ra,0x4
    1032:	c78080e7          	jalr	-904(ra) # 4ca6 <printf>
      exit(1);
    1036:	4505                	li	a0,1
    1038:	00004097          	auipc	ra,0x4
    103c:	8d0080e7          	jalr	-1840(ra) # 4908 <exit>
    printf("remove(%s) returned %d, not -1\n", b, ret);
    1040:	862a                	mv	a2,a0
    1042:	ee840593          	addi	a1,s0,-280
    1046:	00004517          	auipc	a0,0x4
    104a:	6fa50513          	addi	a0,a0,1786 # 5740 <malloc+0x9dc>
    104e:	00004097          	auipc	ra,0x4
    1052:	c58080e7          	jalr	-936(ra) # 4ca6 <printf>
    exit(1);
    1056:	4505                	li	a0,1
    1058:	00004097          	auipc	ra,0x4
    105c:	8b0080e7          	jalr	-1872(ra) # 4908 <exit>
    printf("open(%s) returned %d, not -1\n", b, fd);
    1060:	862a                	mv	a2,a0
    1062:	ee840593          	addi	a1,s0,-280
    1066:	00004517          	auipc	a0,0x4
    106a:	6fa50513          	addi	a0,a0,1786 # 5760 <malloc+0x9fc>
    106e:	00004097          	auipc	ra,0x4
    1072:	c38080e7          	jalr	-968(ra) # 4ca6 <printf>
    exit(1);
    1076:	4505                	li	a0,1
    1078:	00004097          	auipc	ra,0x4
    107c:	890080e7          	jalr	-1904(ra) # 4908 <exit>
    printf("exec(%s) returned %d, not -1\n", b, fd);
    1080:	567d                	li	a2,-1
    1082:	ee840593          	addi	a1,s0,-280
    1086:	00004517          	auipc	a0,0x4
    108a:	6fa50513          	addi	a0,a0,1786 # 5780 <malloc+0xa1c>
    108e:	00004097          	auipc	ra,0x4
    1092:	c18080e7          	jalr	-1000(ra) # 4ca6 <printf>
    exit(1);
    1096:	4505                	li	a0,1
    1098:	00004097          	auipc	ra,0x4
    109c:	870080e7          	jalr	-1936(ra) # 4908 <exit>
    printf("fork failed\n");
    10a0:	00005517          	auipc	a0,0x5
    10a4:	ad850513          	addi	a0,a0,-1320 # 5b78 <malloc+0xe14>
    10a8:	00004097          	auipc	ra,0x4
    10ac:	bfe080e7          	jalr	-1026(ra) # 4ca6 <printf>
    exit(1);
    10b0:	4505                	li	a0,1
    10b2:	00004097          	auipc	ra,0x4
    10b6:	856080e7          	jalr	-1962(ra) # 4908 <exit>
    exit(747); // OK
    10ba:	2eb00513          	li	a0,747
    10be:	00004097          	auipc	ra,0x4
    10c2:	84a080e7          	jalr	-1974(ra) # 4908 <exit>
  int st = 0;
    10c6:	ec042a23          	sw	zero,-300(s0)
  wait(&st);
    10ca:	ed440513          	addi	a0,s0,-300
    10ce:	00004097          	auipc	ra,0x4
    10d2:	842080e7          	jalr	-1982(ra) # 4910 <wait>
  if(st != 747){
    10d6:	ed442703          	lw	a4,-300(s0)
    10da:	2eb00793          	li	a5,747
    10de:	00f71663          	bne	a4,a5,10ea <copyinstr2+0x1a6>
}
    10e2:	60b6                	ld	ra,328(sp)
    10e4:	6416                	ld	s0,320(sp)
    10e6:	6171                	addi	sp,sp,336
    10e8:	8082                	ret
    printf("exec(echo, BIG) succeeded, should have failed\n");
    10ea:	00004517          	auipc	a0,0x4
    10ee:	6de50513          	addi	a0,a0,1758 # 57c8 <malloc+0xa64>
    10f2:	00004097          	auipc	ra,0x4
    10f6:	bb4080e7          	jalr	-1100(ra) # 4ca6 <printf>
    exit(1);
    10fa:	4505                	li	a0,1
    10fc:	00004097          	auipc	ra,0x4
    1100:	80c080e7          	jalr	-2036(ra) # 4908 <exit>

0000000000001104 <truncate3>:
{
    1104:	7159                	addi	sp,sp,-112
    1106:	f486                	sd	ra,104(sp)
    1108:	f0a2                	sd	s0,96(sp)
    110a:	eca6                	sd	s1,88(sp)
    110c:	e8ca                	sd	s2,80(sp)
    110e:	e4ce                	sd	s3,72(sp)
    1110:	e0d2                	sd	s4,64(sp)
    1112:	fc56                	sd	s5,56(sp)
    1114:	f85a                	sd	s6,48(sp)
    1116:	1880                	addi	s0,sp,112
    1118:	892a                	mv	s2,a0
  close(open("truncfile", O_CREATE|O_TRUNC|O_WRONLY));
    111a:	60100593          	li	a1,1537
    111e:	00004517          	auipc	a0,0x4
    1122:	0c250513          	addi	a0,a0,194 # 51e0 <malloc+0x47c>
    1126:	00004097          	auipc	ra,0x4
    112a:	822080e7          	jalr	-2014(ra) # 4948 <open>
    112e:	00004097          	auipc	ra,0x4
    1132:	802080e7          	jalr	-2046(ra) # 4930 <close>
  pid = fork();
    1136:	00003097          	auipc	ra,0x3
    113a:	7ca080e7          	jalr	1994(ra) # 4900 <fork>
  if(pid < 0){
    113e:	08054163          	bltz	a0,11c0 <truncate3+0xbc>
  if(pid == 0){
    1142:	e971                	bnez	a0,1216 <truncate3+0x112>
    1144:	06400993          	li	s3,100
      int fd = open("truncfile", O_WRONLY);
    1148:	00004a17          	auipc	s4,0x4
    114c:	098a0a13          	addi	s4,s4,152 # 51e0 <malloc+0x47c>
      int n = write(fd, "1234567890", 10);
    1150:	00004a97          	auipc	s5,0x4
    1154:	6d8a8a93          	addi	s5,s5,1752 # 5828 <malloc+0xac4>
      read(fd, buf, sizeof(buf));
    1158:	f9840b13          	addi	s6,s0,-104
      int fd = open("truncfile", O_WRONLY);
    115c:	4585                	li	a1,1
    115e:	8552                	mv	a0,s4
    1160:	00003097          	auipc	ra,0x3
    1164:	7e8080e7          	jalr	2024(ra) # 4948 <open>
    1168:	84aa                	mv	s1,a0
      if(fd < 0){
    116a:	06054963          	bltz	a0,11dc <truncate3+0xd8>
      int n = write(fd, "1234567890", 10);
    116e:	4629                	li	a2,10
    1170:	85d6                	mv	a1,s5
    1172:	00003097          	auipc	ra,0x3
    1176:	7b6080e7          	jalr	1974(ra) # 4928 <write>
      if(n != 10){
    117a:	47a9                	li	a5,10
    117c:	06f51e63          	bne	a0,a5,11f8 <truncate3+0xf4>
      close(fd);
    1180:	8526                	mv	a0,s1
    1182:	00003097          	auipc	ra,0x3
    1186:	7ae080e7          	jalr	1966(ra) # 4930 <close>
      fd = open("truncfile", O_RDONLY);
    118a:	4581                	li	a1,0
    118c:	8552                	mv	a0,s4
    118e:	00003097          	auipc	ra,0x3
    1192:	7ba080e7          	jalr	1978(ra) # 4948 <open>
    1196:	84aa                	mv	s1,a0
      read(fd, buf, sizeof(buf));
    1198:	02000613          	li	a2,32
    119c:	85da                	mv	a1,s6
    119e:	00003097          	auipc	ra,0x3
    11a2:	782080e7          	jalr	1922(ra) # 4920 <read>
      close(fd);
    11a6:	8526                	mv	a0,s1
    11a8:	00003097          	auipc	ra,0x3
    11ac:	788080e7          	jalr	1928(ra) # 4930 <close>
    for(int i = 0; i < 100; i++){
    11b0:	39fd                	addiw	s3,s3,-1
    11b2:	fa0995e3          	bnez	s3,115c <truncate3+0x58>
    exit(0);
    11b6:	4501                	li	a0,0
    11b8:	00003097          	auipc	ra,0x3
    11bc:	750080e7          	jalr	1872(ra) # 4908 <exit>
    printf("%s: fork failed\n", s);
    11c0:	85ca                	mv	a1,s2
    11c2:	00004517          	auipc	a0,0x4
    11c6:	63650513          	addi	a0,a0,1590 # 57f8 <malloc+0xa94>
    11ca:	00004097          	auipc	ra,0x4
    11ce:	adc080e7          	jalr	-1316(ra) # 4ca6 <printf>
    exit(1);
    11d2:	4505                	li	a0,1
    11d4:	00003097          	auipc	ra,0x3
    11d8:	734080e7          	jalr	1844(ra) # 4908 <exit>
        printf("%s: open failed\n", s);
    11dc:	85ca                	mv	a1,s2
    11de:	00004517          	auipc	a0,0x4
    11e2:	63250513          	addi	a0,a0,1586 # 5810 <malloc+0xaac>
    11e6:	00004097          	auipc	ra,0x4
    11ea:	ac0080e7          	jalr	-1344(ra) # 4ca6 <printf>
        exit(1);
    11ee:	4505                	li	a0,1
    11f0:	00003097          	auipc	ra,0x3
    11f4:	718080e7          	jalr	1816(ra) # 4908 <exit>
        printf("%s: write got %d, expected 10\n", s, n);
    11f8:	862a                	mv	a2,a0
    11fa:	85ca                	mv	a1,s2
    11fc:	00004517          	auipc	a0,0x4
    1200:	63c50513          	addi	a0,a0,1596 # 5838 <malloc+0xad4>
    1204:	00004097          	auipc	ra,0x4
    1208:	aa2080e7          	jalr	-1374(ra) # 4ca6 <printf>
        exit(1);
    120c:	4505                	li	a0,1
    120e:	00003097          	auipc	ra,0x3
    1212:	6fa080e7          	jalr	1786(ra) # 4908 <exit>
    1216:	09600993          	li	s3,150
    int fd = open("truncfile", O_CREATE|O_WRONLY|O_TRUNC);
    121a:	00004a17          	auipc	s4,0x4
    121e:	fc6a0a13          	addi	s4,s4,-58 # 51e0 <malloc+0x47c>
    int n = write(fd, "xxx", 3);
    1222:	00004a97          	auipc	s5,0x4
    1226:	636a8a93          	addi	s5,s5,1590 # 5858 <malloc+0xaf4>
    int fd = open("truncfile", O_CREATE|O_WRONLY|O_TRUNC);
    122a:	60100593          	li	a1,1537
    122e:	8552                	mv	a0,s4
    1230:	00003097          	auipc	ra,0x3
    1234:	718080e7          	jalr	1816(ra) # 4948 <open>
    1238:	84aa                	mv	s1,a0
    if(fd < 0){
    123a:	04054763          	bltz	a0,1288 <truncate3+0x184>
    int n = write(fd, "xxx", 3);
    123e:	460d                	li	a2,3
    1240:	85d6                	mv	a1,s5
    1242:	00003097          	auipc	ra,0x3
    1246:	6e6080e7          	jalr	1766(ra) # 4928 <write>
    if(n != 3){
    124a:	478d                	li	a5,3
    124c:	04f51c63          	bne	a0,a5,12a4 <truncate3+0x1a0>
    close(fd);
    1250:	8526                	mv	a0,s1
    1252:	00003097          	auipc	ra,0x3
    1256:	6de080e7          	jalr	1758(ra) # 4930 <close>
  for(int i = 0; i < 150; i++){
    125a:	39fd                	addiw	s3,s3,-1
    125c:	fc0997e3          	bnez	s3,122a <truncate3+0x126>
  wait(&xstatus);
    1260:	fbc40513          	addi	a0,s0,-68
    1264:	00003097          	auipc	ra,0x3
    1268:	6ac080e7          	jalr	1708(ra) # 4910 <wait>
  remove("truncfile");
    126c:	00004517          	auipc	a0,0x4
    1270:	f7450513          	addi	a0,a0,-140 # 51e0 <malloc+0x47c>
    1274:	00003097          	auipc	ra,0x3
    1278:	73c080e7          	jalr	1852(ra) # 49b0 <remove>
  exit(xstatus);
    127c:	fbc42503          	lw	a0,-68(s0)
    1280:	00003097          	auipc	ra,0x3
    1284:	688080e7          	jalr	1672(ra) # 4908 <exit>
      printf("%s: open failed\n", s);
    1288:	85ca                	mv	a1,s2
    128a:	00004517          	auipc	a0,0x4
    128e:	58650513          	addi	a0,a0,1414 # 5810 <malloc+0xaac>
    1292:	00004097          	auipc	ra,0x4
    1296:	a14080e7          	jalr	-1516(ra) # 4ca6 <printf>
      exit(1);
    129a:	4505                	li	a0,1
    129c:	00003097          	auipc	ra,0x3
    12a0:	66c080e7          	jalr	1644(ra) # 4908 <exit>
      printf("%s: write got %d, expected 3\n", s, n);
    12a4:	862a                	mv	a2,a0
    12a6:	85ca                	mv	a1,s2
    12a8:	00004517          	auipc	a0,0x4
    12ac:	5b850513          	addi	a0,a0,1464 # 5860 <malloc+0xafc>
    12b0:	00004097          	auipc	ra,0x4
    12b4:	9f6080e7          	jalr	-1546(ra) # 4ca6 <printf>
      exit(1);
    12b8:	4505                	li	a0,1
    12ba:	00003097          	auipc	ra,0x3
    12be:	64e080e7          	jalr	1614(ra) # 4908 <exit>

00000000000012c2 <exectest>:
{
    12c2:	715d                	addi	sp,sp,-80
    12c4:	e486                	sd	ra,72(sp)
    12c6:	e0a2                	sd	s0,64(sp)
    12c8:	fc26                	sd	s1,56(sp)
    12ca:	f84a                	sd	s2,48(sp)
    12cc:	0880                	addi	s0,sp,80
    12ce:	892a                	mv	s2,a0
  char *echoargv[] = { "echo", "OK", 0 };
    12d0:	00004797          	auipc	a5,0x4
    12d4:	eb878793          	addi	a5,a5,-328 # 5188 <malloc+0x424>
    12d8:	fcf43023          	sd	a5,-64(s0)
    12dc:	00004797          	auipc	a5,0x4
    12e0:	5a478793          	addi	a5,a5,1444 # 5880 <malloc+0xb1c>
    12e4:	fcf43423          	sd	a5,-56(s0)
    12e8:	fc043823          	sd	zero,-48(s0)
  remove("echo-ok");
    12ec:	00004517          	auipc	a0,0x4
    12f0:	59c50513          	addi	a0,a0,1436 # 5888 <malloc+0xb24>
    12f4:	00003097          	auipc	ra,0x3
    12f8:	6bc080e7          	jalr	1724(ra) # 49b0 <remove>
  pid = fork();
    12fc:	00003097          	auipc	ra,0x3
    1300:	604080e7          	jalr	1540(ra) # 4900 <fork>
  if(pid < 0) {
    1304:	04054663          	bltz	a0,1350 <exectest+0x8e>
    1308:	84aa                	mv	s1,a0
  if(pid == 0) {
    130a:	e959                	bnez	a0,13a0 <exectest+0xde>
    close(1);
    130c:	4505                	li	a0,1
    130e:	00003097          	auipc	ra,0x3
    1312:	622080e7          	jalr	1570(ra) # 4930 <close>
    fd = open("echo-ok", O_CREATE|O_WRONLY);
    1316:	20100593          	li	a1,513
    131a:	00004517          	auipc	a0,0x4
    131e:	56e50513          	addi	a0,a0,1390 # 5888 <malloc+0xb24>
    1322:	00003097          	auipc	ra,0x3
    1326:	626080e7          	jalr	1574(ra) # 4948 <open>
    if(fd < 0) {
    132a:	04054163          	bltz	a0,136c <exectest+0xaa>
    if(fd != 1) {
    132e:	4785                	li	a5,1
    1330:	04f50c63          	beq	a0,a5,1388 <exectest+0xc6>
      printf("%s: wrong fd\n", s);
    1334:	85ca                	mv	a1,s2
    1336:	00004517          	auipc	a0,0x4
    133a:	57250513          	addi	a0,a0,1394 # 58a8 <malloc+0xb44>
    133e:	00004097          	auipc	ra,0x4
    1342:	968080e7          	jalr	-1688(ra) # 4ca6 <printf>
      exit(1);
    1346:	4505                	li	a0,1
    1348:	00003097          	auipc	ra,0x3
    134c:	5c0080e7          	jalr	1472(ra) # 4908 <exit>
     printf("%s: fork failed\n", s);
    1350:	85ca                	mv	a1,s2
    1352:	00004517          	auipc	a0,0x4
    1356:	4a650513          	addi	a0,a0,1190 # 57f8 <malloc+0xa94>
    135a:	00004097          	auipc	ra,0x4
    135e:	94c080e7          	jalr	-1716(ra) # 4ca6 <printf>
     exit(1);
    1362:	4505                	li	a0,1
    1364:	00003097          	auipc	ra,0x3
    1368:	5a4080e7          	jalr	1444(ra) # 4908 <exit>
      printf("%s: create failed\n", s);
    136c:	85ca                	mv	a1,s2
    136e:	00004517          	auipc	a0,0x4
    1372:	52250513          	addi	a0,a0,1314 # 5890 <malloc+0xb2c>
    1376:	00004097          	auipc	ra,0x4
    137a:	930080e7          	jalr	-1744(ra) # 4ca6 <printf>
      exit(1);
    137e:	4505                	li	a0,1
    1380:	00003097          	auipc	ra,0x3
    1384:	588080e7          	jalr	1416(ra) # 4908 <exit>
    if(exec("echo", echoargv) < 0){
    1388:	fc040593          	addi	a1,s0,-64
    138c:	00004517          	auipc	a0,0x4
    1390:	dfc50513          	addi	a0,a0,-516 # 5188 <malloc+0x424>
    1394:	00003097          	auipc	ra,0x3
    1398:	5ac080e7          	jalr	1452(ra) # 4940 <exec>
    139c:	02054163          	bltz	a0,13be <exectest+0xfc>
  if (wait(&xstatus) != pid) {
    13a0:	fdc40513          	addi	a0,s0,-36
    13a4:	00003097          	auipc	ra,0x3
    13a8:	56c080e7          	jalr	1388(ra) # 4910 <wait>
    13ac:	02951763          	bne	a0,s1,13da <exectest+0x118>
  if(xstatus != 0)
    13b0:	fdc42503          	lw	a0,-36(s0)
    13b4:	cd0d                	beqz	a0,13ee <exectest+0x12c>
    exit(xstatus);
    13b6:	00003097          	auipc	ra,0x3
    13ba:	552080e7          	jalr	1362(ra) # 4908 <exit>
      printf("%s: exec echo failed\n", s);
    13be:	85ca                	mv	a1,s2
    13c0:	00004517          	auipc	a0,0x4
    13c4:	4f850513          	addi	a0,a0,1272 # 58b8 <malloc+0xb54>
    13c8:	00004097          	auipc	ra,0x4
    13cc:	8de080e7          	jalr	-1826(ra) # 4ca6 <printf>
      exit(1);
    13d0:	4505                	li	a0,1
    13d2:	00003097          	auipc	ra,0x3
    13d6:	536080e7          	jalr	1334(ra) # 4908 <exit>
    printf("%s: wait failed!\n", s);
    13da:	85ca                	mv	a1,s2
    13dc:	00004517          	auipc	a0,0x4
    13e0:	4f450513          	addi	a0,a0,1268 # 58d0 <malloc+0xb6c>
    13e4:	00004097          	auipc	ra,0x4
    13e8:	8c2080e7          	jalr	-1854(ra) # 4ca6 <printf>
    13ec:	b7d1                	j	13b0 <exectest+0xee>
  fd = open("echo-ok", O_RDONLY);
    13ee:	4581                	li	a1,0
    13f0:	00004517          	auipc	a0,0x4
    13f4:	49850513          	addi	a0,a0,1176 # 5888 <malloc+0xb24>
    13f8:	00003097          	auipc	ra,0x3
    13fc:	550080e7          	jalr	1360(ra) # 4948 <open>
  if(fd < 0) {
    1400:	02054a63          	bltz	a0,1434 <exectest+0x172>
  if (read(fd, buf, 2) != 2) {
    1404:	4609                	li	a2,2
    1406:	fb840593          	addi	a1,s0,-72
    140a:	00003097          	auipc	ra,0x3
    140e:	516080e7          	jalr	1302(ra) # 4920 <read>
    1412:	4789                	li	a5,2
    1414:	02f50e63          	beq	a0,a5,1450 <exectest+0x18e>
    printf("%s: read failed\n", s);
    1418:	85ca                	mv	a1,s2
    141a:	00004517          	auipc	a0,0x4
    141e:	12e50513          	addi	a0,a0,302 # 5548 <malloc+0x7e4>
    1422:	00004097          	auipc	ra,0x4
    1426:	884080e7          	jalr	-1916(ra) # 4ca6 <printf>
    exit(1);
    142a:	4505                	li	a0,1
    142c:	00003097          	auipc	ra,0x3
    1430:	4dc080e7          	jalr	1244(ra) # 4908 <exit>
    printf("%s: open failed\n", s);
    1434:	85ca                	mv	a1,s2
    1436:	00004517          	auipc	a0,0x4
    143a:	3da50513          	addi	a0,a0,986 # 5810 <malloc+0xaac>
    143e:	00004097          	auipc	ra,0x4
    1442:	868080e7          	jalr	-1944(ra) # 4ca6 <printf>
    exit(1);
    1446:	4505                	li	a0,1
    1448:	00003097          	auipc	ra,0x3
    144c:	4c0080e7          	jalr	1216(ra) # 4908 <exit>
  remove("echo-ok");
    1450:	00004517          	auipc	a0,0x4
    1454:	43850513          	addi	a0,a0,1080 # 5888 <malloc+0xb24>
    1458:	00003097          	auipc	ra,0x3
    145c:	558080e7          	jalr	1368(ra) # 49b0 <remove>
  if(buf[0] == 'O' && buf[1] == 'K')
    1460:	fb844703          	lbu	a4,-72(s0)
    1464:	04f00793          	li	a5,79
    1468:	00f71863          	bne	a4,a5,1478 <exectest+0x1b6>
    146c:	fb944703          	lbu	a4,-71(s0)
    1470:	04b00793          	li	a5,75
    1474:	02f70063          	beq	a4,a5,1494 <exectest+0x1d2>
    printf("%s: wrong output\n", s);
    1478:	85ca                	mv	a1,s2
    147a:	00004517          	auipc	a0,0x4
    147e:	46e50513          	addi	a0,a0,1134 # 58e8 <malloc+0xb84>
    1482:	00004097          	auipc	ra,0x4
    1486:	824080e7          	jalr	-2012(ra) # 4ca6 <printf>
    exit(1);
    148a:	4505                	li	a0,1
    148c:	00003097          	auipc	ra,0x3
    1490:	47c080e7          	jalr	1148(ra) # 4908 <exit>
    exit(0);
    1494:	4501                	li	a0,0
    1496:	00003097          	auipc	ra,0x3
    149a:	472080e7          	jalr	1138(ra) # 4908 <exit>

000000000000149e <pipe1>:
{
    149e:	711d                	addi	sp,sp,-96
    14a0:	ec86                	sd	ra,88(sp)
    14a2:	e8a2                	sd	s0,80(sp)
    14a4:	e4a6                	sd	s1,72(sp)
    14a6:	e0ca                	sd	s2,64(sp)
    14a8:	fc4e                	sd	s3,56(sp)
    14aa:	f852                	sd	s4,48(sp)
    14ac:	f456                	sd	s5,40(sp)
    14ae:	f05a                	sd	s6,32(sp)
    14b0:	ec5e                	sd	s7,24(sp)
    14b2:	1080                	addi	s0,sp,96
    14b4:	892a                	mv	s2,a0
  if(pipe(fds) != 0){
    14b6:	fa840513          	addi	a0,s0,-88
    14ba:	00003097          	auipc	ra,0x3
    14be:	45e080e7          	jalr	1118(ra) # 4918 <pipe>
    14c2:	ed35                	bnez	a0,153e <pipe1+0xa0>
    14c4:	84aa                	mv	s1,a0
  pid = fork();
    14c6:	00003097          	auipc	ra,0x3
    14ca:	43a080e7          	jalr	1082(ra) # 4900 <fork>
    14ce:	8a2a                	mv	s4,a0
  if(pid == 0){
    14d0:	c549                	beqz	a0,155a <pipe1+0xbc>
  } else if(pid > 0){
    14d2:	18a05063          	blez	a0,1652 <pipe1+0x1b4>
    close(fds[1]);
    14d6:	fac42503          	lw	a0,-84(s0)
    14da:	00003097          	auipc	ra,0x3
    14de:	456080e7          	jalr	1110(ra) # 4930 <close>
    total = 0;
    14e2:	8aa6                	mv	s5,s1
    cc = 1;
    14e4:	4985                	li	s3,1
    while((n = read(fds[0], buf, cc)) > 0){
    14e6:	00009b17          	auipc	s6,0x9
    14ea:	33ab0b13          	addi	s6,s6,826 # a820 <buf>
      if(cc > sizeof(buf))
    14ee:	6a09                	lui	s4,0x2
    14f0:	800a0a13          	addi	s4,s4,-2048 # 1800 <forkfork+0x3e>
    while((n = read(fds[0], buf, cc)) > 0){
    14f4:	864e                	mv	a2,s3
    14f6:	85da                	mv	a1,s6
    14f8:	fa842503          	lw	a0,-88(s0)
    14fc:	00003097          	auipc	ra,0x3
    1500:	424080e7          	jalr	1060(ra) # 4920 <read>
    1504:	10a05263          	blez	a0,1608 <pipe1+0x16a>
      for(i = 0; i < n; i++){
    1508:	00009717          	auipc	a4,0x9
    150c:	31870713          	addi	a4,a4,792 # a820 <buf>
    1510:	00a4863b          	addw	a2,s1,a0
        if((buf[i] & 0xff) != (seq++ & 0xff)){
    1514:	00074683          	lbu	a3,0(a4)
    1518:	0ff4f793          	andi	a5,s1,255
    151c:	2485                	addiw	s1,s1,1
    151e:	0cf69163          	bne	a3,a5,15e0 <pipe1+0x142>
      for(i = 0; i < n; i++){
    1522:	0705                	addi	a4,a4,1
    1524:	fec498e3          	bne	s1,a2,1514 <pipe1+0x76>
      total += n;
    1528:	00aa8abb          	addw	s5,s5,a0
      cc = cc * 2;
    152c:	0019979b          	slliw	a5,s3,0x1
    1530:	0007899b          	sext.w	s3,a5
      if(cc > sizeof(buf))
    1534:	013a7363          	bgeu	s4,s3,153a <pipe1+0x9c>
        cc = sizeof(buf);
    1538:	89d2                	mv	s3,s4
        if((buf[i] & 0xff) != (seq++ & 0xff)){
    153a:	84b2                	mv	s1,a2
    153c:	bf65                	j	14f4 <pipe1+0x56>
    printf("%s: pipe() failed\n", s);
    153e:	85ca                	mv	a1,s2
    1540:	00004517          	auipc	a0,0x4
    1544:	3c050513          	addi	a0,a0,960 # 5900 <malloc+0xb9c>
    1548:	00003097          	auipc	ra,0x3
    154c:	75e080e7          	jalr	1886(ra) # 4ca6 <printf>
    exit(1);
    1550:	4505                	li	a0,1
    1552:	00003097          	auipc	ra,0x3
    1556:	3b6080e7          	jalr	950(ra) # 4908 <exit>
    close(fds[0]);
    155a:	fa842503          	lw	a0,-88(s0)
    155e:	00003097          	auipc	ra,0x3
    1562:	3d2080e7          	jalr	978(ra) # 4930 <close>
    for(n = 0; n < N; n++){
    1566:	00009b17          	auipc	s6,0x9
    156a:	2bab0b13          	addi	s6,s6,698 # a820 <buf>
    156e:	416004bb          	negw	s1,s6
    1572:	0ff4f493          	andi	s1,s1,255
    1576:	409b0993          	addi	s3,s6,1033
      if(write(fds[1], buf, SZ) != SZ){
    157a:	8bda                	mv	s7,s6
    for(n = 0; n < N; n++){
    157c:	6a85                	lui	s5,0x1
    157e:	42da8a93          	addi	s5,s5,1069 # 142d <exectest+0x16b>
{
    1582:	87da                	mv	a5,s6
        buf[i] = seq++;
    1584:	0097873b          	addw	a4,a5,s1
    1588:	00e78023          	sb	a4,0(a5)
      for(i = 0; i < SZ; i++)
    158c:	0785                	addi	a5,a5,1
    158e:	fef99be3          	bne	s3,a5,1584 <pipe1+0xe6>
        buf[i] = seq++;
    1592:	409a0a1b          	addiw	s4,s4,1033
      if(write(fds[1], buf, SZ) != SZ){
    1596:	40900613          	li	a2,1033
    159a:	85de                	mv	a1,s7
    159c:	fac42503          	lw	a0,-84(s0)
    15a0:	00003097          	auipc	ra,0x3
    15a4:	388080e7          	jalr	904(ra) # 4928 <write>
    15a8:	40900793          	li	a5,1033
    15ac:	00f51c63          	bne	a0,a5,15c4 <pipe1+0x126>
    for(n = 0; n < N; n++){
    15b0:	24a5                	addiw	s1,s1,9
    15b2:	0ff4f493          	andi	s1,s1,255
    15b6:	fd5a16e3          	bne	s4,s5,1582 <pipe1+0xe4>
    exit(0);
    15ba:	4501                	li	a0,0
    15bc:	00003097          	auipc	ra,0x3
    15c0:	34c080e7          	jalr	844(ra) # 4908 <exit>
        printf("%s: pipe1 oops 1\n", s);
    15c4:	85ca                	mv	a1,s2
    15c6:	00004517          	auipc	a0,0x4
    15ca:	35250513          	addi	a0,a0,850 # 5918 <malloc+0xbb4>
    15ce:	00003097          	auipc	ra,0x3
    15d2:	6d8080e7          	jalr	1752(ra) # 4ca6 <printf>
        exit(1);
    15d6:	4505                	li	a0,1
    15d8:	00003097          	auipc	ra,0x3
    15dc:	330080e7          	jalr	816(ra) # 4908 <exit>
          printf("%s: pipe1 oops 2\n", s);
    15e0:	85ca                	mv	a1,s2
    15e2:	00004517          	auipc	a0,0x4
    15e6:	34e50513          	addi	a0,a0,846 # 5930 <malloc+0xbcc>
    15ea:	00003097          	auipc	ra,0x3
    15ee:	6bc080e7          	jalr	1724(ra) # 4ca6 <printf>
}
    15f2:	60e6                	ld	ra,88(sp)
    15f4:	6446                	ld	s0,80(sp)
    15f6:	64a6                	ld	s1,72(sp)
    15f8:	6906                	ld	s2,64(sp)
    15fa:	79e2                	ld	s3,56(sp)
    15fc:	7a42                	ld	s4,48(sp)
    15fe:	7aa2                	ld	s5,40(sp)
    1600:	7b02                	ld	s6,32(sp)
    1602:	6be2                	ld	s7,24(sp)
    1604:	6125                	addi	sp,sp,96
    1606:	8082                	ret
    if(total != N * SZ){
    1608:	6785                	lui	a5,0x1
    160a:	42d78793          	addi	a5,a5,1069 # 142d <exectest+0x16b>
    160e:	02fa8063          	beq	s5,a5,162e <pipe1+0x190>
      printf("%s: pipe1 oops 3 total %d\n", total);
    1612:	85d6                	mv	a1,s5
    1614:	00004517          	auipc	a0,0x4
    1618:	33450513          	addi	a0,a0,820 # 5948 <malloc+0xbe4>
    161c:	00003097          	auipc	ra,0x3
    1620:	68a080e7          	jalr	1674(ra) # 4ca6 <printf>
      exit(1);
    1624:	4505                	li	a0,1
    1626:	00003097          	auipc	ra,0x3
    162a:	2e2080e7          	jalr	738(ra) # 4908 <exit>
    close(fds[0]);
    162e:	fa842503          	lw	a0,-88(s0)
    1632:	00003097          	auipc	ra,0x3
    1636:	2fe080e7          	jalr	766(ra) # 4930 <close>
    wait(&xstatus);
    163a:	fa440513          	addi	a0,s0,-92
    163e:	00003097          	auipc	ra,0x3
    1642:	2d2080e7          	jalr	722(ra) # 4910 <wait>
    exit(xstatus);
    1646:	fa442503          	lw	a0,-92(s0)
    164a:	00003097          	auipc	ra,0x3
    164e:	2be080e7          	jalr	702(ra) # 4908 <exit>
    printf("%s: fork() failed\n", s);
    1652:	85ca                	mv	a1,s2
    1654:	00004517          	auipc	a0,0x4
    1658:	31450513          	addi	a0,a0,788 # 5968 <malloc+0xc04>
    165c:	00003097          	auipc	ra,0x3
    1660:	64a080e7          	jalr	1610(ra) # 4ca6 <printf>
    exit(1);
    1664:	4505                	li	a0,1
    1666:	00003097          	auipc	ra,0x3
    166a:	2a2080e7          	jalr	674(ra) # 4908 <exit>

000000000000166e <exitwait>:
{
    166e:	715d                	addi	sp,sp,-80
    1670:	e486                	sd	ra,72(sp)
    1672:	e0a2                	sd	s0,64(sp)
    1674:	fc26                	sd	s1,56(sp)
    1676:	f84a                	sd	s2,48(sp)
    1678:	f44e                	sd	s3,40(sp)
    167a:	f052                	sd	s4,32(sp)
    167c:	ec56                	sd	s5,24(sp)
    167e:	0880                	addi	s0,sp,80
    1680:	8aaa                	mv	s5,a0
  for(i = 0; i < 100; i++){
    1682:	4901                	li	s2,0
      if(wait(&xstate) != pid){
    1684:	fbc40993          	addi	s3,s0,-68
  for(i = 0; i < 100; i++){
    1688:	06400a13          	li	s4,100
    pid = fork();
    168c:	00003097          	auipc	ra,0x3
    1690:	274080e7          	jalr	628(ra) # 4900 <fork>
    1694:	84aa                	mv	s1,a0
    if(pid < 0){
    1696:	02054a63          	bltz	a0,16ca <exitwait+0x5c>
    if(pid){
    169a:	c151                	beqz	a0,171e <exitwait+0xb0>
      if(wait(&xstate) != pid){
    169c:	854e                	mv	a0,s3
    169e:	00003097          	auipc	ra,0x3
    16a2:	272080e7          	jalr	626(ra) # 4910 <wait>
    16a6:	04951063          	bne	a0,s1,16e6 <exitwait+0x78>
      if(i != xstate) {
    16aa:	fbc42783          	lw	a5,-68(s0)
    16ae:	05279a63          	bne	a5,s2,1702 <exitwait+0x94>
  for(i = 0; i < 100; i++){
    16b2:	2905                	addiw	s2,s2,1
    16b4:	fd491ce3          	bne	s2,s4,168c <exitwait+0x1e>
}
    16b8:	60a6                	ld	ra,72(sp)
    16ba:	6406                	ld	s0,64(sp)
    16bc:	74e2                	ld	s1,56(sp)
    16be:	7942                	ld	s2,48(sp)
    16c0:	79a2                	ld	s3,40(sp)
    16c2:	7a02                	ld	s4,32(sp)
    16c4:	6ae2                	ld	s5,24(sp)
    16c6:	6161                	addi	sp,sp,80
    16c8:	8082                	ret
      printf("%s: fork failed\n", s);
    16ca:	85d6                	mv	a1,s5
    16cc:	00004517          	auipc	a0,0x4
    16d0:	12c50513          	addi	a0,a0,300 # 57f8 <malloc+0xa94>
    16d4:	00003097          	auipc	ra,0x3
    16d8:	5d2080e7          	jalr	1490(ra) # 4ca6 <printf>
      exit(1);
    16dc:	4505                	li	a0,1
    16de:	00003097          	auipc	ra,0x3
    16e2:	22a080e7          	jalr	554(ra) # 4908 <exit>
        printf("%s: wait wrong pid\n", s);
    16e6:	85d6                	mv	a1,s5
    16e8:	00004517          	auipc	a0,0x4
    16ec:	29850513          	addi	a0,a0,664 # 5980 <malloc+0xc1c>
    16f0:	00003097          	auipc	ra,0x3
    16f4:	5b6080e7          	jalr	1462(ra) # 4ca6 <printf>
        exit(1);
    16f8:	4505                	li	a0,1
    16fa:	00003097          	auipc	ra,0x3
    16fe:	20e080e7          	jalr	526(ra) # 4908 <exit>
        printf("%s: wait wrong exit status\n", s);
    1702:	85d6                	mv	a1,s5
    1704:	00004517          	auipc	a0,0x4
    1708:	29450513          	addi	a0,a0,660 # 5998 <malloc+0xc34>
    170c:	00003097          	auipc	ra,0x3
    1710:	59a080e7          	jalr	1434(ra) # 4ca6 <printf>
        exit(1);
    1714:	4505                	li	a0,1
    1716:	00003097          	auipc	ra,0x3
    171a:	1f2080e7          	jalr	498(ra) # 4908 <exit>
      exit(i);
    171e:	854a                	mv	a0,s2
    1720:	00003097          	auipc	ra,0x3
    1724:	1e8080e7          	jalr	488(ra) # 4908 <exit>

0000000000001728 <twochildren>:
{
    1728:	1101                	addi	sp,sp,-32
    172a:	ec06                	sd	ra,24(sp)
    172c:	e822                	sd	s0,16(sp)
    172e:	e426                	sd	s1,8(sp)
    1730:	e04a                	sd	s2,0(sp)
    1732:	1000                	addi	s0,sp,32
    1734:	892a                	mv	s2,a0
    1736:	3e800493          	li	s1,1000
    int pid1 = fork();
    173a:	00003097          	auipc	ra,0x3
    173e:	1c6080e7          	jalr	454(ra) # 4900 <fork>
    if(pid1 < 0){
    1742:	02054c63          	bltz	a0,177a <twochildren+0x52>
    if(pid1 == 0){
    1746:	c921                	beqz	a0,1796 <twochildren+0x6e>
      int pid2 = fork();
    1748:	00003097          	auipc	ra,0x3
    174c:	1b8080e7          	jalr	440(ra) # 4900 <fork>
      if(pid2 < 0){
    1750:	04054763          	bltz	a0,179e <twochildren+0x76>
      if(pid2 == 0){
    1754:	c13d                	beqz	a0,17ba <twochildren+0x92>
        wait(0);
    1756:	4501                	li	a0,0
    1758:	00003097          	auipc	ra,0x3
    175c:	1b8080e7          	jalr	440(ra) # 4910 <wait>
        wait(0);
    1760:	4501                	li	a0,0
    1762:	00003097          	auipc	ra,0x3
    1766:	1ae080e7          	jalr	430(ra) # 4910 <wait>
  for(int i = 0; i < 1000; i++){
    176a:	34fd                	addiw	s1,s1,-1
    176c:	f4f9                	bnez	s1,173a <twochildren+0x12>
}
    176e:	60e2                	ld	ra,24(sp)
    1770:	6442                	ld	s0,16(sp)
    1772:	64a2                	ld	s1,8(sp)
    1774:	6902                	ld	s2,0(sp)
    1776:	6105                	addi	sp,sp,32
    1778:	8082                	ret
      printf("%s: fork failed\n", s);
    177a:	85ca                	mv	a1,s2
    177c:	00004517          	auipc	a0,0x4
    1780:	07c50513          	addi	a0,a0,124 # 57f8 <malloc+0xa94>
    1784:	00003097          	auipc	ra,0x3
    1788:	522080e7          	jalr	1314(ra) # 4ca6 <printf>
      exit(1);
    178c:	4505                	li	a0,1
    178e:	00003097          	auipc	ra,0x3
    1792:	17a080e7          	jalr	378(ra) # 4908 <exit>
      exit(0);
    1796:	00003097          	auipc	ra,0x3
    179a:	172080e7          	jalr	370(ra) # 4908 <exit>
        printf("%s: fork failed\n", s);
    179e:	85ca                	mv	a1,s2
    17a0:	00004517          	auipc	a0,0x4
    17a4:	05850513          	addi	a0,a0,88 # 57f8 <malloc+0xa94>
    17a8:	00003097          	auipc	ra,0x3
    17ac:	4fe080e7          	jalr	1278(ra) # 4ca6 <printf>
        exit(1);
    17b0:	4505                	li	a0,1
    17b2:	00003097          	auipc	ra,0x3
    17b6:	156080e7          	jalr	342(ra) # 4908 <exit>
        exit(0);
    17ba:	00003097          	auipc	ra,0x3
    17be:	14e080e7          	jalr	334(ra) # 4908 <exit>

00000000000017c2 <forkfork>:
{
    17c2:	7179                	addi	sp,sp,-48
    17c4:	f406                	sd	ra,40(sp)
    17c6:	f022                	sd	s0,32(sp)
    17c8:	ec26                	sd	s1,24(sp)
    17ca:	1800                	addi	s0,sp,48
    17cc:	84aa                	mv	s1,a0
    int pid = fork();
    17ce:	00003097          	auipc	ra,0x3
    17d2:	132080e7          	jalr	306(ra) # 4900 <fork>
    if(pid < 0){
    17d6:	04054163          	bltz	a0,1818 <forkfork+0x56>
    if(pid == 0){
    17da:	cd29                	beqz	a0,1834 <forkfork+0x72>
    int pid = fork();
    17dc:	00003097          	auipc	ra,0x3
    17e0:	124080e7          	jalr	292(ra) # 4900 <fork>
    if(pid < 0){
    17e4:	02054a63          	bltz	a0,1818 <forkfork+0x56>
    if(pid == 0){
    17e8:	c531                	beqz	a0,1834 <forkfork+0x72>
    wait(&xstatus);
    17ea:	fdc40513          	addi	a0,s0,-36
    17ee:	00003097          	auipc	ra,0x3
    17f2:	122080e7          	jalr	290(ra) # 4910 <wait>
    if(xstatus != 0) {
    17f6:	fdc42783          	lw	a5,-36(s0)
    17fa:	ebbd                	bnez	a5,1870 <forkfork+0xae>
    wait(&xstatus);
    17fc:	fdc40513          	addi	a0,s0,-36
    1800:	00003097          	auipc	ra,0x3
    1804:	110080e7          	jalr	272(ra) # 4910 <wait>
    if(xstatus != 0) {
    1808:	fdc42783          	lw	a5,-36(s0)
    180c:	e3b5                	bnez	a5,1870 <forkfork+0xae>
}
    180e:	70a2                	ld	ra,40(sp)
    1810:	7402                	ld	s0,32(sp)
    1812:	64e2                	ld	s1,24(sp)
    1814:	6145                	addi	sp,sp,48
    1816:	8082                	ret
      printf("%s: fork failed", s);
    1818:	85a6                	mv	a1,s1
    181a:	00004517          	auipc	a0,0x4
    181e:	19e50513          	addi	a0,a0,414 # 59b8 <malloc+0xc54>
    1822:	00003097          	auipc	ra,0x3
    1826:	484080e7          	jalr	1156(ra) # 4ca6 <printf>
      exit(1);
    182a:	4505                	li	a0,1
    182c:	00003097          	auipc	ra,0x3
    1830:	0dc080e7          	jalr	220(ra) # 4908 <exit>
{
    1834:	0c800493          	li	s1,200
        int pid1 = fork();
    1838:	00003097          	auipc	ra,0x3
    183c:	0c8080e7          	jalr	200(ra) # 4900 <fork>
        if(pid1 < 0){
    1840:	00054f63          	bltz	a0,185e <forkfork+0x9c>
        if(pid1 == 0){
    1844:	c115                	beqz	a0,1868 <forkfork+0xa6>
        wait(0);
    1846:	4501                	li	a0,0
    1848:	00003097          	auipc	ra,0x3
    184c:	0c8080e7          	jalr	200(ra) # 4910 <wait>
      for(int j = 0; j < 200; j++){
    1850:	34fd                	addiw	s1,s1,-1
    1852:	f0fd                	bnez	s1,1838 <forkfork+0x76>
      exit(0);
    1854:	4501                	li	a0,0
    1856:	00003097          	auipc	ra,0x3
    185a:	0b2080e7          	jalr	178(ra) # 4908 <exit>
          exit(1);
    185e:	4505                	li	a0,1
    1860:	00003097          	auipc	ra,0x3
    1864:	0a8080e7          	jalr	168(ra) # 4908 <exit>
          exit(0);
    1868:	00003097          	auipc	ra,0x3
    186c:	0a0080e7          	jalr	160(ra) # 4908 <exit>
      printf("%s: fork in child failed", s);
    1870:	85a6                	mv	a1,s1
    1872:	00004517          	auipc	a0,0x4
    1876:	15650513          	addi	a0,a0,342 # 59c8 <malloc+0xc64>
    187a:	00003097          	auipc	ra,0x3
    187e:	42c080e7          	jalr	1068(ra) # 4ca6 <printf>
      exit(1);
    1882:	4505                	li	a0,1
    1884:	00003097          	auipc	ra,0x3
    1888:	084080e7          	jalr	132(ra) # 4908 <exit>

000000000000188c <reparent2>:
{
    188c:	1101                	addi	sp,sp,-32
    188e:	ec06                	sd	ra,24(sp)
    1890:	e822                	sd	s0,16(sp)
    1892:	e426                	sd	s1,8(sp)
    1894:	1000                	addi	s0,sp,32
    1896:	32000493          	li	s1,800
    int pid1 = fork();
    189a:	00003097          	auipc	ra,0x3
    189e:	066080e7          	jalr	102(ra) # 4900 <fork>
    if(pid1 < 0){
    18a2:	00054f63          	bltz	a0,18c0 <reparent2+0x34>
    if(pid1 == 0){
    18a6:	c915                	beqz	a0,18da <reparent2+0x4e>
    wait(0);
    18a8:	4501                	li	a0,0
    18aa:	00003097          	auipc	ra,0x3
    18ae:	066080e7          	jalr	102(ra) # 4910 <wait>
  for(int i = 0; i < 800; i++){
    18b2:	34fd                	addiw	s1,s1,-1
    18b4:	f0fd                	bnez	s1,189a <reparent2+0xe>
  exit(0);
    18b6:	4501                	li	a0,0
    18b8:	00003097          	auipc	ra,0x3
    18bc:	050080e7          	jalr	80(ra) # 4908 <exit>
      printf("fork failed\n");
    18c0:	00004517          	auipc	a0,0x4
    18c4:	2b850513          	addi	a0,a0,696 # 5b78 <malloc+0xe14>
    18c8:	00003097          	auipc	ra,0x3
    18cc:	3de080e7          	jalr	990(ra) # 4ca6 <printf>
      exit(1);
    18d0:	4505                	li	a0,1
    18d2:	00003097          	auipc	ra,0x3
    18d6:	036080e7          	jalr	54(ra) # 4908 <exit>
      fork();
    18da:	00003097          	auipc	ra,0x3
    18de:	026080e7          	jalr	38(ra) # 4900 <fork>
      fork();
    18e2:	00003097          	auipc	ra,0x3
    18e6:	01e080e7          	jalr	30(ra) # 4900 <fork>
      exit(0);
    18ea:	4501                	li	a0,0
    18ec:	00003097          	auipc	ra,0x3
    18f0:	01c080e7          	jalr	28(ra) # 4908 <exit>

00000000000018f4 <forktest>:
{
    18f4:	7179                	addi	sp,sp,-48
    18f6:	f406                	sd	ra,40(sp)
    18f8:	f022                	sd	s0,32(sp)
    18fa:	ec26                	sd	s1,24(sp)
    18fc:	e84a                	sd	s2,16(sp)
    18fe:	e44e                	sd	s3,8(sp)
    1900:	1800                	addi	s0,sp,48
    1902:	89aa                	mv	s3,a0
  for(n=0; n<N; n++){
    1904:	4481                	li	s1,0
    1906:	3e800913          	li	s2,1000
    pid = fork();
    190a:	00003097          	auipc	ra,0x3
    190e:	ff6080e7          	jalr	-10(ra) # 4900 <fork>
    if(pid < 0)
    1912:	02054863          	bltz	a0,1942 <forktest+0x4e>
    if(pid == 0)
    1916:	c115                	beqz	a0,193a <forktest+0x46>
  for(n=0; n<N; n++){
    1918:	2485                	addiw	s1,s1,1
    191a:	ff2498e3          	bne	s1,s2,190a <forktest+0x16>
    printf("%s: fork claimed to work 1000 times!\n", s);
    191e:	85ce                	mv	a1,s3
    1920:	00004517          	auipc	a0,0x4
    1924:	0e050513          	addi	a0,a0,224 # 5a00 <malloc+0xc9c>
    1928:	00003097          	auipc	ra,0x3
    192c:	37e080e7          	jalr	894(ra) # 4ca6 <printf>
    exit(1);
    1930:	4505                	li	a0,1
    1932:	00003097          	auipc	ra,0x3
    1936:	fd6080e7          	jalr	-42(ra) # 4908 <exit>
      exit(0);
    193a:	00003097          	auipc	ra,0x3
    193e:	fce080e7          	jalr	-50(ra) # 4908 <exit>
  if (n == 0) {
    1942:	cc9d                	beqz	s1,1980 <forktest+0x8c>
  if(n == N){
    1944:	3e800793          	li	a5,1000
    1948:	fcf48be3          	beq	s1,a5,191e <forktest+0x2a>
  for(; n > 0; n--){
    194c:	00905b63          	blez	s1,1962 <forktest+0x6e>
    if(wait(0) < 0){
    1950:	4501                	li	a0,0
    1952:	00003097          	auipc	ra,0x3
    1956:	fbe080e7          	jalr	-66(ra) # 4910 <wait>
    195a:	04054163          	bltz	a0,199c <forktest+0xa8>
  for(; n > 0; n--){
    195e:	34fd                	addiw	s1,s1,-1
    1960:	f8e5                	bnez	s1,1950 <forktest+0x5c>
  if(wait(0) != -1){
    1962:	4501                	li	a0,0
    1964:	00003097          	auipc	ra,0x3
    1968:	fac080e7          	jalr	-84(ra) # 4910 <wait>
    196c:	57fd                	li	a5,-1
    196e:	04f51563          	bne	a0,a5,19b8 <forktest+0xc4>
}
    1972:	70a2                	ld	ra,40(sp)
    1974:	7402                	ld	s0,32(sp)
    1976:	64e2                	ld	s1,24(sp)
    1978:	6942                	ld	s2,16(sp)
    197a:	69a2                	ld	s3,8(sp)
    197c:	6145                	addi	sp,sp,48
    197e:	8082                	ret
    printf("%s: no fork at all!\n", s);
    1980:	85ce                	mv	a1,s3
    1982:	00004517          	auipc	a0,0x4
    1986:	06650513          	addi	a0,a0,102 # 59e8 <malloc+0xc84>
    198a:	00003097          	auipc	ra,0x3
    198e:	31c080e7          	jalr	796(ra) # 4ca6 <printf>
    exit(1);
    1992:	4505                	li	a0,1
    1994:	00003097          	auipc	ra,0x3
    1998:	f74080e7          	jalr	-140(ra) # 4908 <exit>
      printf("%s: wait stopped early\n", s);
    199c:	85ce                	mv	a1,s3
    199e:	00004517          	auipc	a0,0x4
    19a2:	08a50513          	addi	a0,a0,138 # 5a28 <malloc+0xcc4>
    19a6:	00003097          	auipc	ra,0x3
    19aa:	300080e7          	jalr	768(ra) # 4ca6 <printf>
      exit(1);
    19ae:	4505                	li	a0,1
    19b0:	00003097          	auipc	ra,0x3
    19b4:	f58080e7          	jalr	-168(ra) # 4908 <exit>
    printf("%s: wait got too many\n", s);
    19b8:	85ce                	mv	a1,s3
    19ba:	00004517          	auipc	a0,0x4
    19be:	08650513          	addi	a0,a0,134 # 5a40 <malloc+0xcdc>
    19c2:	00003097          	auipc	ra,0x3
    19c6:	2e4080e7          	jalr	740(ra) # 4ca6 <printf>
    exit(1);
    19ca:	4505                	li	a0,1
    19cc:	00003097          	auipc	ra,0x3
    19d0:	f3c080e7          	jalr	-196(ra) # 4908 <exit>

00000000000019d4 <kernmem>:
{
    19d4:	715d                	addi	sp,sp,-80
    19d6:	e486                	sd	ra,72(sp)
    19d8:	e0a2                	sd	s0,64(sp)
    19da:	fc26                	sd	s1,56(sp)
    19dc:	f84a                	sd	s2,48(sp)
    19de:	f44e                	sd	s3,40(sp)
    19e0:	f052                	sd	s4,32(sp)
    19e2:	ec56                	sd	s5,24(sp)
    19e4:	e85a                	sd	s6,16(sp)
    19e6:	0880                	addi	s0,sp,80
    19e8:	8b2a                	mv	s6,a0
  for(a = (char*)(KERNBASE); a < (char*) (KERNBASE+2000000); a += 50000){
    19ea:	040014b7          	lui	s1,0x4001
    19ee:	0496                	slli	s1,s1,0x5
    wait(&xstatus);
    19f0:	fbc40a93          	addi	s5,s0,-68
    if(xstatus != -1)  // did kernel kill child?
    19f4:	5a7d                	li	s4,-1
  for(a = (char*)(KERNBASE); a < (char*) (KERNBASE+2000000); a += 50000){
    19f6:	69b1                	lui	s3,0xc
    19f8:	35098993          	addi	s3,s3,848 # c350 <__BSS_END__+0x318>
    19fc:	10041937          	lui	s2,0x10041
    1a00:	090e                	slli	s2,s2,0x3
    1a02:	48090913          	addi	s2,s2,1152 # 10041480 <__BSS_END__+0x10035448>
    pid = fork();
    1a06:	00003097          	auipc	ra,0x3
    1a0a:	efa080e7          	jalr	-262(ra) # 4900 <fork>
    if(pid < 0){
    1a0e:	02054963          	bltz	a0,1a40 <kernmem+0x6c>
    if(pid == 0){
    1a12:	c529                	beqz	a0,1a5c <kernmem+0x88>
    wait(&xstatus);
    1a14:	8556                	mv	a0,s5
    1a16:	00003097          	auipc	ra,0x3
    1a1a:	efa080e7          	jalr	-262(ra) # 4910 <wait>
    if(xstatus != -1)  // did kernel kill child?
    1a1e:	fbc42783          	lw	a5,-68(s0)
    1a22:	05479d63          	bne	a5,s4,1a7c <kernmem+0xa8>
  for(a = (char*)(KERNBASE); a < (char*) (KERNBASE+2000000); a += 50000){
    1a26:	94ce                	add	s1,s1,s3
    1a28:	fd249fe3          	bne	s1,s2,1a06 <kernmem+0x32>
}
    1a2c:	60a6                	ld	ra,72(sp)
    1a2e:	6406                	ld	s0,64(sp)
    1a30:	74e2                	ld	s1,56(sp)
    1a32:	7942                	ld	s2,48(sp)
    1a34:	79a2                	ld	s3,40(sp)
    1a36:	7a02                	ld	s4,32(sp)
    1a38:	6ae2                	ld	s5,24(sp)
    1a3a:	6b42                	ld	s6,16(sp)
    1a3c:	6161                	addi	sp,sp,80
    1a3e:	8082                	ret
      printf("%s: fork failed\n", s);
    1a40:	85da                	mv	a1,s6
    1a42:	00004517          	auipc	a0,0x4
    1a46:	db650513          	addi	a0,a0,-586 # 57f8 <malloc+0xa94>
    1a4a:	00003097          	auipc	ra,0x3
    1a4e:	25c080e7          	jalr	604(ra) # 4ca6 <printf>
      exit(1);
    1a52:	4505                	li	a0,1
    1a54:	00003097          	auipc	ra,0x3
    1a58:	eb4080e7          	jalr	-332(ra) # 4908 <exit>
      printf("%s: oops could read %x = %x\n", a, *a);
    1a5c:	0004c603          	lbu	a2,0(s1) # 4001000 <__BSS_END__+0x3ff4fc8>
    1a60:	85a6                	mv	a1,s1
    1a62:	00004517          	auipc	a0,0x4
    1a66:	ff650513          	addi	a0,a0,-10 # 5a58 <malloc+0xcf4>
    1a6a:	00003097          	auipc	ra,0x3
    1a6e:	23c080e7          	jalr	572(ra) # 4ca6 <printf>
      exit(1);
    1a72:	4505                	li	a0,1
    1a74:	00003097          	auipc	ra,0x3
    1a78:	e94080e7          	jalr	-364(ra) # 4908 <exit>
      exit(1);
    1a7c:	4505                	li	a0,1
    1a7e:	00003097          	auipc	ra,0x3
    1a82:	e8a080e7          	jalr	-374(ra) # 4908 <exit>

0000000000001a86 <bigargtest>:
{
    1a86:	7179                	addi	sp,sp,-48
    1a88:	f406                	sd	ra,40(sp)
    1a8a:	f022                	sd	s0,32(sp)
    1a8c:	ec26                	sd	s1,24(sp)
    1a8e:	1800                	addi	s0,sp,48
    1a90:	84aa                	mv	s1,a0
  remove("bigarg-ok");
    1a92:	00004517          	auipc	a0,0x4
    1a96:	fe650513          	addi	a0,a0,-26 # 5a78 <malloc+0xd14>
    1a9a:	00003097          	auipc	ra,0x3
    1a9e:	f16080e7          	jalr	-234(ra) # 49b0 <remove>
  pid = fork();
    1aa2:	00003097          	auipc	ra,0x3
    1aa6:	e5e080e7          	jalr	-418(ra) # 4900 <fork>
  if(pid == 0){
    1aaa:	c921                	beqz	a0,1afa <bigargtest+0x74>
  } else if(pid < 0){
    1aac:	0a054a63          	bltz	a0,1b60 <bigargtest+0xda>
  wait(&xstatus);
    1ab0:	fdc40513          	addi	a0,s0,-36
    1ab4:	00003097          	auipc	ra,0x3
    1ab8:	e5c080e7          	jalr	-420(ra) # 4910 <wait>
  if(xstatus != 0)
    1abc:	fdc42503          	lw	a0,-36(s0)
    1ac0:	ed55                	bnez	a0,1b7c <bigargtest+0xf6>
  fd = open("bigarg-ok", 0);
    1ac2:	4581                	li	a1,0
    1ac4:	00004517          	auipc	a0,0x4
    1ac8:	fb450513          	addi	a0,a0,-76 # 5a78 <malloc+0xd14>
    1acc:	00003097          	auipc	ra,0x3
    1ad0:	e7c080e7          	jalr	-388(ra) # 4948 <open>
  if(fd < 0){
    1ad4:	0a054863          	bltz	a0,1b84 <bigargtest+0xfe>
  close(fd);
    1ad8:	00003097          	auipc	ra,0x3
    1adc:	e58080e7          	jalr	-424(ra) # 4930 <close>
  remove("bigarg-ok");
    1ae0:	00004517          	auipc	a0,0x4
    1ae4:	f9850513          	addi	a0,a0,-104 # 5a78 <malloc+0xd14>
    1ae8:	00003097          	auipc	ra,0x3
    1aec:	ec8080e7          	jalr	-312(ra) # 49b0 <remove>
}
    1af0:	70a2                	ld	ra,40(sp)
    1af2:	7402                	ld	s0,32(sp)
    1af4:	64e2                	ld	s1,24(sp)
    1af6:	6145                	addi	sp,sp,48
    1af8:	8082                	ret
    1afa:	00005797          	auipc	a5,0x5
    1afe:	50e78793          	addi	a5,a5,1294 # 7008 <args.1>
    1b02:	00005697          	auipc	a3,0x5
    1b06:	5fe68693          	addi	a3,a3,1534 # 7100 <args.1+0xf8>
      args[i] = "bigargs test: failed\n                                                                                                                                                                                                       ";
    1b0a:	00004717          	auipc	a4,0x4
    1b0e:	f7e70713          	addi	a4,a4,-130 # 5a88 <malloc+0xd24>
    1b12:	e398                	sd	a4,0(a5)
    for(i = 0; i < MAXARG-1; i++)
    1b14:	07a1                	addi	a5,a5,8
    1b16:	fed79ee3          	bne	a5,a3,1b12 <bigargtest+0x8c>
    args[MAXARG-1] = 0;
    1b1a:	00005797          	auipc	a5,0x5
    1b1e:	5e07b323          	sd	zero,1510(a5) # 7100 <args.1+0xf8>
    exec("echo", args);
    1b22:	00005597          	auipc	a1,0x5
    1b26:	4e658593          	addi	a1,a1,1254 # 7008 <args.1>
    1b2a:	00003517          	auipc	a0,0x3
    1b2e:	65e50513          	addi	a0,a0,1630 # 5188 <malloc+0x424>
    1b32:	00003097          	auipc	ra,0x3
    1b36:	e0e080e7          	jalr	-498(ra) # 4940 <exec>
    fd = open("bigarg-ok", O_CREATE);
    1b3a:	20000593          	li	a1,512
    1b3e:	00004517          	auipc	a0,0x4
    1b42:	f3a50513          	addi	a0,a0,-198 # 5a78 <malloc+0xd14>
    1b46:	00003097          	auipc	ra,0x3
    1b4a:	e02080e7          	jalr	-510(ra) # 4948 <open>
    close(fd);
    1b4e:	00003097          	auipc	ra,0x3
    1b52:	de2080e7          	jalr	-542(ra) # 4930 <close>
    exit(0);
    1b56:	4501                	li	a0,0
    1b58:	00003097          	auipc	ra,0x3
    1b5c:	db0080e7          	jalr	-592(ra) # 4908 <exit>
    printf("%s: bigargtest: fork failed\n", s);
    1b60:	85a6                	mv	a1,s1
    1b62:	00004517          	auipc	a0,0x4
    1b66:	00650513          	addi	a0,a0,6 # 5b68 <malloc+0xe04>
    1b6a:	00003097          	auipc	ra,0x3
    1b6e:	13c080e7          	jalr	316(ra) # 4ca6 <printf>
    exit(1);
    1b72:	4505                	li	a0,1
    1b74:	00003097          	auipc	ra,0x3
    1b78:	d94080e7          	jalr	-620(ra) # 4908 <exit>
    exit(xstatus);
    1b7c:	00003097          	auipc	ra,0x3
    1b80:	d8c080e7          	jalr	-628(ra) # 4908 <exit>
    printf("%s: bigarg test failed!\n", s);
    1b84:	85a6                	mv	a1,s1
    1b86:	00004517          	auipc	a0,0x4
    1b8a:	00250513          	addi	a0,a0,2 # 5b88 <malloc+0xe24>
    1b8e:	00003097          	auipc	ra,0x3
    1b92:	118080e7          	jalr	280(ra) # 4ca6 <printf>
    exit(1);
    1b96:	4505                	li	a0,1
    1b98:	00003097          	auipc	ra,0x3
    1b9c:	d70080e7          	jalr	-656(ra) # 4908 <exit>

0000000000001ba0 <stacktest>:
{
    1ba0:	7179                	addi	sp,sp,-48
    1ba2:	f406                	sd	ra,40(sp)
    1ba4:	f022                	sd	s0,32(sp)
    1ba6:	ec26                	sd	s1,24(sp)
    1ba8:	1800                	addi	s0,sp,48
    1baa:	84aa                	mv	s1,a0
  pid = fork();
    1bac:	00003097          	auipc	ra,0x3
    1bb0:	d54080e7          	jalr	-684(ra) # 4900 <fork>
  if(pid == 0) {
    1bb4:	c115                	beqz	a0,1bd8 <stacktest+0x38>
  } else if(pid < 0){
    1bb6:	04054363          	bltz	a0,1bfc <stacktest+0x5c>
  wait(&xstatus);
    1bba:	fdc40513          	addi	a0,s0,-36
    1bbe:	00003097          	auipc	ra,0x3
    1bc2:	d52080e7          	jalr	-686(ra) # 4910 <wait>
  if(xstatus == -1)  // kernel killed child?
    1bc6:	fdc42503          	lw	a0,-36(s0)
    1bca:	57fd                	li	a5,-1
    1bcc:	04f50663          	beq	a0,a5,1c18 <stacktest+0x78>
    exit(xstatus);
    1bd0:	00003097          	auipc	ra,0x3
    1bd4:	d38080e7          	jalr	-712(ra) # 4908 <exit>

static inline uint64
r_sp()
{
  uint64 x;
  asm volatile("mv %0, sp" : "=r" (x) );
    1bd8:	870a                	mv	a4,sp
    printf("%s: stacktest: read below stack %p\n", *sp);
    1bda:	77fd                	lui	a5,0xfffff
    1bdc:	97ba                	add	a5,a5,a4
    1bde:	0007c583          	lbu	a1,0(a5) # fffffffffffff000 <__BSS_END__+0xffffffffffff2fc8>
    1be2:	00004517          	auipc	a0,0x4
    1be6:	fc650513          	addi	a0,a0,-58 # 5ba8 <malloc+0xe44>
    1bea:	00003097          	auipc	ra,0x3
    1bee:	0bc080e7          	jalr	188(ra) # 4ca6 <printf>
    exit(1);
    1bf2:	4505                	li	a0,1
    1bf4:	00003097          	auipc	ra,0x3
    1bf8:	d14080e7          	jalr	-748(ra) # 4908 <exit>
    printf("%s: fork failed\n", s);
    1bfc:	85a6                	mv	a1,s1
    1bfe:	00004517          	auipc	a0,0x4
    1c02:	bfa50513          	addi	a0,a0,-1030 # 57f8 <malloc+0xa94>
    1c06:	00003097          	auipc	ra,0x3
    1c0a:	0a0080e7          	jalr	160(ra) # 4ca6 <printf>
    exit(1);
    1c0e:	4505                	li	a0,1
    1c10:	00003097          	auipc	ra,0x3
    1c14:	cf8080e7          	jalr	-776(ra) # 4908 <exit>
    exit(0);
    1c18:	4501                	li	a0,0
    1c1a:	00003097          	auipc	ra,0x3
    1c1e:	cee080e7          	jalr	-786(ra) # 4908 <exit>

0000000000001c22 <copyinstr3>:
{
    1c22:	7179                	addi	sp,sp,-48
    1c24:	f406                	sd	ra,40(sp)
    1c26:	f022                	sd	s0,32(sp)
    1c28:	ec26                	sd	s1,24(sp)
    1c2a:	1800                	addi	s0,sp,48
  sbrk(8192);
    1c2c:	6509                	lui	a0,0x2
    1c2e:	00003097          	auipc	ra,0x3
    1c32:	d4a080e7          	jalr	-694(ra) # 4978 <sbrk>
  uint64 top = (uint64) sbrk(0);
    1c36:	4501                	li	a0,0
    1c38:	00003097          	auipc	ra,0x3
    1c3c:	d40080e7          	jalr	-704(ra) # 4978 <sbrk>
  if((top % PGSIZE) != 0){
    1c40:	03451793          	slli	a5,a0,0x34
    1c44:	eba5                	bnez	a5,1cb4 <copyinstr3+0x92>
  top = (uint64) sbrk(0);
    1c46:	4501                	li	a0,0
    1c48:	00003097          	auipc	ra,0x3
    1c4c:	d30080e7          	jalr	-720(ra) # 4978 <sbrk>
  if(top % PGSIZE){
    1c50:	03451793          	slli	a5,a0,0x34
    1c54:	ebb5                	bnez	a5,1cc8 <copyinstr3+0xa6>
  char *b = (char *) (top - 1);
    1c56:	fff50493          	addi	s1,a0,-1 # 1fff <sbrkmuch+0x13f>
  *b = 'x';
    1c5a:	07800793          	li	a5,120
    1c5e:	fef50fa3          	sb	a5,-1(a0)
  int ret = remove(b);
    1c62:	8526                	mv	a0,s1
    1c64:	00003097          	auipc	ra,0x3
    1c68:	d4c080e7          	jalr	-692(ra) # 49b0 <remove>
  if(ret != -1){
    1c6c:	57fd                	li	a5,-1
    1c6e:	06f51a63          	bne	a0,a5,1ce2 <copyinstr3+0xc0>
  int fd = open(b, O_CREATE | O_WRONLY);
    1c72:	20100593          	li	a1,513
    1c76:	8526                	mv	a0,s1
    1c78:	00003097          	auipc	ra,0x3
    1c7c:	cd0080e7          	jalr	-816(ra) # 4948 <open>
  if(fd != -1){
    1c80:	57fd                	li	a5,-1
    1c82:	06f51f63          	bne	a0,a5,1d00 <copyinstr3+0xde>
  char *args[] = { "xx", 0 };
    1c86:	00004797          	auipc	a5,0x4
    1c8a:	6ca78793          	addi	a5,a5,1738 # 6350 <malloc+0x15ec>
    1c8e:	fcf43823          	sd	a5,-48(s0)
    1c92:	fc043c23          	sd	zero,-40(s0)
  ret = exec(b, args);
    1c96:	fd040593          	addi	a1,s0,-48
    1c9a:	8526                	mv	a0,s1
    1c9c:	00003097          	auipc	ra,0x3
    1ca0:	ca4080e7          	jalr	-860(ra) # 4940 <exec>
  if(ret != -1){
    1ca4:	57fd                	li	a5,-1
    1ca6:	06f51c63          	bne	a0,a5,1d1e <copyinstr3+0xfc>
}
    1caa:	70a2                	ld	ra,40(sp)
    1cac:	7402                	ld	s0,32(sp)
    1cae:	64e2                	ld	s1,24(sp)
    1cb0:	6145                	addi	sp,sp,48
    1cb2:	8082                	ret
    sbrk(PGSIZE - (top % PGSIZE));
    1cb4:	0347d513          	srli	a0,a5,0x34
    1cb8:	6785                	lui	a5,0x1
    1cba:	40a7853b          	subw	a0,a5,a0
    1cbe:	00003097          	auipc	ra,0x3
    1cc2:	cba080e7          	jalr	-838(ra) # 4978 <sbrk>
    1cc6:	b741                	j	1c46 <copyinstr3+0x24>
    printf("oops\n");
    1cc8:	00004517          	auipc	a0,0x4
    1ccc:	f0850513          	addi	a0,a0,-248 # 5bd0 <malloc+0xe6c>
    1cd0:	00003097          	auipc	ra,0x3
    1cd4:	fd6080e7          	jalr	-42(ra) # 4ca6 <printf>
    exit(1);
    1cd8:	4505                	li	a0,1
    1cda:	00003097          	auipc	ra,0x3
    1cde:	c2e080e7          	jalr	-978(ra) # 4908 <exit>
    printf("remove(%s) returned %d, not -1\n", b, ret);
    1ce2:	862a                	mv	a2,a0
    1ce4:	85a6                	mv	a1,s1
    1ce6:	00004517          	auipc	a0,0x4
    1cea:	a5a50513          	addi	a0,a0,-1446 # 5740 <malloc+0x9dc>
    1cee:	00003097          	auipc	ra,0x3
    1cf2:	fb8080e7          	jalr	-72(ra) # 4ca6 <printf>
    exit(1);
    1cf6:	4505                	li	a0,1
    1cf8:	00003097          	auipc	ra,0x3
    1cfc:	c10080e7          	jalr	-1008(ra) # 4908 <exit>
    printf("open(%s) returned %d, not -1\n", b, fd);
    1d00:	862a                	mv	a2,a0
    1d02:	85a6                	mv	a1,s1
    1d04:	00004517          	auipc	a0,0x4
    1d08:	a5c50513          	addi	a0,a0,-1444 # 5760 <malloc+0x9fc>
    1d0c:	00003097          	auipc	ra,0x3
    1d10:	f9a080e7          	jalr	-102(ra) # 4ca6 <printf>
    exit(1);
    1d14:	4505                	li	a0,1
    1d16:	00003097          	auipc	ra,0x3
    1d1a:	bf2080e7          	jalr	-1038(ra) # 4908 <exit>
    printf("exec(%s) returned %d, not -1\n", b, fd);
    1d1e:	567d                	li	a2,-1
    1d20:	85a6                	mv	a1,s1
    1d22:	00004517          	auipc	a0,0x4
    1d26:	a5e50513          	addi	a0,a0,-1442 # 5780 <malloc+0xa1c>
    1d2a:	00003097          	auipc	ra,0x3
    1d2e:	f7c080e7          	jalr	-132(ra) # 4ca6 <printf>
    exit(1);
    1d32:	4505                	li	a0,1
    1d34:	00003097          	auipc	ra,0x3
    1d38:	bd4080e7          	jalr	-1068(ra) # 4908 <exit>

0000000000001d3c <sbrkbasic>:
{
    1d3c:	7139                	addi	sp,sp,-64
    1d3e:	fc06                	sd	ra,56(sp)
    1d40:	f822                	sd	s0,48(sp)
    1d42:	f426                	sd	s1,40(sp)
    1d44:	f04a                	sd	s2,32(sp)
    1d46:	ec4e                	sd	s3,24(sp)
    1d48:	e852                	sd	s4,16(sp)
    1d4a:	0080                	addi	s0,sp,64
    1d4c:	8a2a                	mv	s4,a0
  pid = fork();
    1d4e:	00003097          	auipc	ra,0x3
    1d52:	bb2080e7          	jalr	-1102(ra) # 4900 <fork>
  if(pid < 0){
    1d56:	02054c63          	bltz	a0,1d8e <sbrkbasic+0x52>
  if(pid == 0){
    1d5a:	ed21                	bnez	a0,1db2 <sbrkbasic+0x76>
    a = sbrk(TOOMUCH);
    1d5c:	40000537          	lui	a0,0x40000
    1d60:	00003097          	auipc	ra,0x3
    1d64:	c18080e7          	jalr	-1000(ra) # 4978 <sbrk>
    if(a == (char*)0xffffffffffffffffL){
    1d68:	57fd                	li	a5,-1
    1d6a:	02f50f63          	beq	a0,a5,1da8 <sbrkbasic+0x6c>
    for(b = a; b < a+TOOMUCH; b += 4096){
    1d6e:	400007b7          	lui	a5,0x40000
    1d72:	97aa                	add	a5,a5,a0
      *b = 99;
    1d74:	06300693          	li	a3,99
    for(b = a; b < a+TOOMUCH; b += 4096){
    1d78:	6705                	lui	a4,0x1
      *b = 99;
    1d7a:	00d50023          	sb	a3,0(a0) # 40000000 <__BSS_END__+0x3fff3fc8>
    for(b = a; b < a+TOOMUCH; b += 4096){
    1d7e:	953a                	add	a0,a0,a4
    1d80:	fef51de3          	bne	a0,a5,1d7a <sbrkbasic+0x3e>
    exit(1);
    1d84:	4505                	li	a0,1
    1d86:	00003097          	auipc	ra,0x3
    1d8a:	b82080e7          	jalr	-1150(ra) # 4908 <exit>
    printf("fork failed in sbrkbasic\n");
    1d8e:	00004517          	auipc	a0,0x4
    1d92:	e4a50513          	addi	a0,a0,-438 # 5bd8 <malloc+0xe74>
    1d96:	00003097          	auipc	ra,0x3
    1d9a:	f10080e7          	jalr	-240(ra) # 4ca6 <printf>
    exit(1);
    1d9e:	4505                	li	a0,1
    1da0:	00003097          	auipc	ra,0x3
    1da4:	b68080e7          	jalr	-1176(ra) # 4908 <exit>
      exit(0);
    1da8:	4501                	li	a0,0
    1daa:	00003097          	auipc	ra,0x3
    1dae:	b5e080e7          	jalr	-1186(ra) # 4908 <exit>
  wait(&xstatus);
    1db2:	fcc40513          	addi	a0,s0,-52
    1db6:	00003097          	auipc	ra,0x3
    1dba:	b5a080e7          	jalr	-1190(ra) # 4910 <wait>
  if(xstatus == 1){
    1dbe:	fcc42703          	lw	a4,-52(s0)
    1dc2:	4785                	li	a5,1
    1dc4:	00f70d63          	beq	a4,a5,1dde <sbrkbasic+0xa2>
  a = sbrk(0);
    1dc8:	4501                	li	a0,0
    1dca:	00003097          	auipc	ra,0x3
    1dce:	bae080e7          	jalr	-1106(ra) # 4978 <sbrk>
    1dd2:	84aa                	mv	s1,a0
  for(i = 0; i < 5000; i++){
    1dd4:	4901                	li	s2,0
    1dd6:	6985                	lui	s3,0x1
    1dd8:	38898993          	addi	s3,s3,904 # 1388 <exectest+0xc6>
    1ddc:	a005                	j	1dfc <sbrkbasic+0xc0>
    printf("%s: too much memory allocated!\n", s);
    1dde:	85d2                	mv	a1,s4
    1de0:	00004517          	auipc	a0,0x4
    1de4:	e1850513          	addi	a0,a0,-488 # 5bf8 <malloc+0xe94>
    1de8:	00003097          	auipc	ra,0x3
    1dec:	ebe080e7          	jalr	-322(ra) # 4ca6 <printf>
    exit(1);
    1df0:	4505                	li	a0,1
    1df2:	00003097          	auipc	ra,0x3
    1df6:	b16080e7          	jalr	-1258(ra) # 4908 <exit>
    a = b + 1;
    1dfa:	84be                	mv	s1,a5
    b = sbrk(1);
    1dfc:	4505                	li	a0,1
    1dfe:	00003097          	auipc	ra,0x3
    1e02:	b7a080e7          	jalr	-1158(ra) # 4978 <sbrk>
    if(b != a){
    1e06:	04951c63          	bne	a0,s1,1e5e <sbrkbasic+0x122>
    *b = 1;
    1e0a:	4785                	li	a5,1
    1e0c:	00f48023          	sb	a5,0(s1)
    a = b + 1;
    1e10:	00148793          	addi	a5,s1,1
  for(i = 0; i < 5000; i++){
    1e14:	2905                	addiw	s2,s2,1
    1e16:	ff3912e3          	bne	s2,s3,1dfa <sbrkbasic+0xbe>
  pid = fork();
    1e1a:	00003097          	auipc	ra,0x3
    1e1e:	ae6080e7          	jalr	-1306(ra) # 4900 <fork>
    1e22:	892a                	mv	s2,a0
  if(pid < 0){
    1e24:	04054d63          	bltz	a0,1e7e <sbrkbasic+0x142>
  c = sbrk(1);
    1e28:	4505                	li	a0,1
    1e2a:	00003097          	auipc	ra,0x3
    1e2e:	b4e080e7          	jalr	-1202(ra) # 4978 <sbrk>
  c = sbrk(1);
    1e32:	4505                	li	a0,1
    1e34:	00003097          	auipc	ra,0x3
    1e38:	b44080e7          	jalr	-1212(ra) # 4978 <sbrk>
  if(c != a + 1){
    1e3c:	0489                	addi	s1,s1,2
    1e3e:	04a48e63          	beq	s1,a0,1e9a <sbrkbasic+0x15e>
    printf("%s: sbrk test failed post-fork\n", s);
    1e42:	85d2                	mv	a1,s4
    1e44:	00004517          	auipc	a0,0x4
    1e48:	e1450513          	addi	a0,a0,-492 # 5c58 <malloc+0xef4>
    1e4c:	00003097          	auipc	ra,0x3
    1e50:	e5a080e7          	jalr	-422(ra) # 4ca6 <printf>
    exit(1);
    1e54:	4505                	li	a0,1
    1e56:	00003097          	auipc	ra,0x3
    1e5a:	ab2080e7          	jalr	-1358(ra) # 4908 <exit>
      printf("%s: sbrk test failed %d %x %x\n", i, a, b);
    1e5e:	86aa                	mv	a3,a0
    1e60:	8626                	mv	a2,s1
    1e62:	85ca                	mv	a1,s2
    1e64:	00004517          	auipc	a0,0x4
    1e68:	db450513          	addi	a0,a0,-588 # 5c18 <malloc+0xeb4>
    1e6c:	00003097          	auipc	ra,0x3
    1e70:	e3a080e7          	jalr	-454(ra) # 4ca6 <printf>
      exit(1);
    1e74:	4505                	li	a0,1
    1e76:	00003097          	auipc	ra,0x3
    1e7a:	a92080e7          	jalr	-1390(ra) # 4908 <exit>
    printf("%s: sbrk test fork failed\n", s);
    1e7e:	85d2                	mv	a1,s4
    1e80:	00004517          	auipc	a0,0x4
    1e84:	db850513          	addi	a0,a0,-584 # 5c38 <malloc+0xed4>
    1e88:	00003097          	auipc	ra,0x3
    1e8c:	e1e080e7          	jalr	-482(ra) # 4ca6 <printf>
    exit(1);
    1e90:	4505                	li	a0,1
    1e92:	00003097          	auipc	ra,0x3
    1e96:	a76080e7          	jalr	-1418(ra) # 4908 <exit>
  if(pid == 0)
    1e9a:	00091763          	bnez	s2,1ea8 <sbrkbasic+0x16c>
    exit(0);
    1e9e:	4501                	li	a0,0
    1ea0:	00003097          	auipc	ra,0x3
    1ea4:	a68080e7          	jalr	-1432(ra) # 4908 <exit>
  wait(&xstatus);
    1ea8:	fcc40513          	addi	a0,s0,-52
    1eac:	00003097          	auipc	ra,0x3
    1eb0:	a64080e7          	jalr	-1436(ra) # 4910 <wait>
  exit(xstatus);
    1eb4:	fcc42503          	lw	a0,-52(s0)
    1eb8:	00003097          	auipc	ra,0x3
    1ebc:	a50080e7          	jalr	-1456(ra) # 4908 <exit>

0000000000001ec0 <sbrkmuch>:
{
    1ec0:	7179                	addi	sp,sp,-48
    1ec2:	f406                	sd	ra,40(sp)
    1ec4:	f022                	sd	s0,32(sp)
    1ec6:	ec26                	sd	s1,24(sp)
    1ec8:	e84a                	sd	s2,16(sp)
    1eca:	e44e                	sd	s3,8(sp)
    1ecc:	e052                	sd	s4,0(sp)
    1ece:	1800                	addi	s0,sp,48
    1ed0:	89aa                	mv	s3,a0
  oldbrk = sbrk(0);
    1ed2:	4501                	li	a0,0
    1ed4:	00003097          	auipc	ra,0x3
    1ed8:	aa4080e7          	jalr	-1372(ra) # 4978 <sbrk>
    1edc:	892a                	mv	s2,a0
  a = sbrk(0);
    1ede:	4501                	li	a0,0
    1ee0:	00003097          	auipc	ra,0x3
    1ee4:	a98080e7          	jalr	-1384(ra) # 4978 <sbrk>
    1ee8:	84aa                	mv	s1,a0
  p = sbrk(amt);
    1eea:	00300537          	lui	a0,0x300
    1eee:	9d05                	subw	a0,a0,s1
    1ef0:	00003097          	auipc	ra,0x3
    1ef4:	a88080e7          	jalr	-1400(ra) # 4978 <sbrk>
  if (p != a) {
    1ef8:	0ca49863          	bne	s1,a0,1fc8 <sbrkmuch+0x108>
  char *eee = sbrk(0);
    1efc:	4501                	li	a0,0
    1efe:	00003097          	auipc	ra,0x3
    1f02:	a7a080e7          	jalr	-1414(ra) # 4978 <sbrk>
    1f06:	87aa                	mv	a5,a0
  for(char *pp = a; pp < eee; pp += 4096)
    1f08:	00a4f963          	bgeu	s1,a0,1f1a <sbrkmuch+0x5a>
    *pp = 1;
    1f0c:	4685                	li	a3,1
  for(char *pp = a; pp < eee; pp += 4096)
    1f0e:	6705                	lui	a4,0x1
    *pp = 1;
    1f10:	00d48023          	sb	a3,0(s1)
  for(char *pp = a; pp < eee; pp += 4096)
    1f14:	94ba                	add	s1,s1,a4
    1f16:	fef4ede3          	bltu	s1,a5,1f10 <sbrkmuch+0x50>
  *lastaddr = 99;
    1f1a:	003007b7          	lui	a5,0x300
    1f1e:	06300713          	li	a4,99
    1f22:	fee78fa3          	sb	a4,-1(a5) # 2fffff <__BSS_END__+0x2f3fc7>
  a = sbrk(0);
    1f26:	4501                	li	a0,0
    1f28:	00003097          	auipc	ra,0x3
    1f2c:	a50080e7          	jalr	-1456(ra) # 4978 <sbrk>
    1f30:	84aa                	mv	s1,a0
  c = sbrk(-PGSIZE);
    1f32:	757d                	lui	a0,0xfffff
    1f34:	00003097          	auipc	ra,0x3
    1f38:	a44080e7          	jalr	-1468(ra) # 4978 <sbrk>
  if(c == (char*)0xffffffffffffffffL){
    1f3c:	57fd                	li	a5,-1
    1f3e:	0af50363          	beq	a0,a5,1fe4 <sbrkmuch+0x124>
  c = sbrk(0);
    1f42:	4501                	li	a0,0
    1f44:	00003097          	auipc	ra,0x3
    1f48:	a34080e7          	jalr	-1484(ra) # 4978 <sbrk>
  if(c != a - PGSIZE){
    1f4c:	77fd                	lui	a5,0xfffff
    1f4e:	97a6                	add	a5,a5,s1
    1f50:	0af51863          	bne	a0,a5,2000 <sbrkmuch+0x140>
  a = sbrk(0);
    1f54:	4501                	li	a0,0
    1f56:	00003097          	auipc	ra,0x3
    1f5a:	a22080e7          	jalr	-1502(ra) # 4978 <sbrk>
    1f5e:	84aa                	mv	s1,a0
  c = sbrk(PGSIZE);
    1f60:	6505                	lui	a0,0x1
    1f62:	00003097          	auipc	ra,0x3
    1f66:	a16080e7          	jalr	-1514(ra) # 4978 <sbrk>
    1f6a:	8a2a                	mv	s4,a0
  if(c != a || sbrk(0) != a + PGSIZE){
    1f6c:	0aa49963          	bne	s1,a0,201e <sbrkmuch+0x15e>
    1f70:	4501                	li	a0,0
    1f72:	00003097          	auipc	ra,0x3
    1f76:	a06080e7          	jalr	-1530(ra) # 4978 <sbrk>
    1f7a:	6785                	lui	a5,0x1
    1f7c:	97a6                	add	a5,a5,s1
    1f7e:	0af51063          	bne	a0,a5,201e <sbrkmuch+0x15e>
  if(*lastaddr == 99){
    1f82:	003007b7          	lui	a5,0x300
    1f86:	fff7c703          	lbu	a4,-1(a5) # 2fffff <__BSS_END__+0x2f3fc7>
    1f8a:	06300793          	li	a5,99
    1f8e:	0af70763          	beq	a4,a5,203c <sbrkmuch+0x17c>
  a = sbrk(0);
    1f92:	4501                	li	a0,0
    1f94:	00003097          	auipc	ra,0x3
    1f98:	9e4080e7          	jalr	-1564(ra) # 4978 <sbrk>
    1f9c:	84aa                	mv	s1,a0
  c = sbrk(-(sbrk(0) - oldbrk));
    1f9e:	4501                	li	a0,0
    1fa0:	00003097          	auipc	ra,0x3
    1fa4:	9d8080e7          	jalr	-1576(ra) # 4978 <sbrk>
    1fa8:	40a9053b          	subw	a0,s2,a0
    1fac:	00003097          	auipc	ra,0x3
    1fb0:	9cc080e7          	jalr	-1588(ra) # 4978 <sbrk>
  if(c != a){
    1fb4:	0aa49263          	bne	s1,a0,2058 <sbrkmuch+0x198>
}
    1fb8:	70a2                	ld	ra,40(sp)
    1fba:	7402                	ld	s0,32(sp)
    1fbc:	64e2                	ld	s1,24(sp)
    1fbe:	6942                	ld	s2,16(sp)
    1fc0:	69a2                	ld	s3,8(sp)
    1fc2:	6a02                	ld	s4,0(sp)
    1fc4:	6145                	addi	sp,sp,48
    1fc6:	8082                	ret
    printf("%s: sbrk test failed to grow big address space; enough phys mem?\n", s);
    1fc8:	85ce                	mv	a1,s3
    1fca:	00004517          	auipc	a0,0x4
    1fce:	cae50513          	addi	a0,a0,-850 # 5c78 <malloc+0xf14>
    1fd2:	00003097          	auipc	ra,0x3
    1fd6:	cd4080e7          	jalr	-812(ra) # 4ca6 <printf>
    exit(1);
    1fda:	4505                	li	a0,1
    1fdc:	00003097          	auipc	ra,0x3
    1fe0:	92c080e7          	jalr	-1748(ra) # 4908 <exit>
    printf("%s: sbrk could not deallocate\n", s);
    1fe4:	85ce                	mv	a1,s3
    1fe6:	00004517          	auipc	a0,0x4
    1fea:	cda50513          	addi	a0,a0,-806 # 5cc0 <malloc+0xf5c>
    1fee:	00003097          	auipc	ra,0x3
    1ff2:	cb8080e7          	jalr	-840(ra) # 4ca6 <printf>
    exit(1);
    1ff6:	4505                	li	a0,1
    1ff8:	00003097          	auipc	ra,0x3
    1ffc:	910080e7          	jalr	-1776(ra) # 4908 <exit>
    printf("%s: sbrk deallocation produced wrong address, a %x c %x\n", a, c);
    2000:	862a                	mv	a2,a0
    2002:	85a6                	mv	a1,s1
    2004:	00004517          	auipc	a0,0x4
    2008:	cdc50513          	addi	a0,a0,-804 # 5ce0 <malloc+0xf7c>
    200c:	00003097          	auipc	ra,0x3
    2010:	c9a080e7          	jalr	-870(ra) # 4ca6 <printf>
    exit(1);
    2014:	4505                	li	a0,1
    2016:	00003097          	auipc	ra,0x3
    201a:	8f2080e7          	jalr	-1806(ra) # 4908 <exit>
    printf("%s: sbrk re-allocation failed, a %x c %x\n", a, c);
    201e:	8652                	mv	a2,s4
    2020:	85a6                	mv	a1,s1
    2022:	00004517          	auipc	a0,0x4
    2026:	cfe50513          	addi	a0,a0,-770 # 5d20 <malloc+0xfbc>
    202a:	00003097          	auipc	ra,0x3
    202e:	c7c080e7          	jalr	-900(ra) # 4ca6 <printf>
    exit(1);
    2032:	4505                	li	a0,1
    2034:	00003097          	auipc	ra,0x3
    2038:	8d4080e7          	jalr	-1836(ra) # 4908 <exit>
    printf("%s: sbrk de-allocation didn't really deallocate\n", s);
    203c:	85ce                	mv	a1,s3
    203e:	00004517          	auipc	a0,0x4
    2042:	d1250513          	addi	a0,a0,-750 # 5d50 <malloc+0xfec>
    2046:	00003097          	auipc	ra,0x3
    204a:	c60080e7          	jalr	-928(ra) # 4ca6 <printf>
    exit(1);
    204e:	4505                	li	a0,1
    2050:	00003097          	auipc	ra,0x3
    2054:	8b8080e7          	jalr	-1864(ra) # 4908 <exit>
    printf("%s: sbrk downsize failed, a %x c %x\n", a, c);
    2058:	862a                	mv	a2,a0
    205a:	85a6                	mv	a1,s1
    205c:	00004517          	auipc	a0,0x4
    2060:	d2c50513          	addi	a0,a0,-724 # 5d88 <malloc+0x1024>
    2064:	00003097          	auipc	ra,0x3
    2068:	c42080e7          	jalr	-958(ra) # 4ca6 <printf>
    exit(1);
    206c:	4505                	li	a0,1
    206e:	00003097          	auipc	ra,0x3
    2072:	89a080e7          	jalr	-1894(ra) # 4908 <exit>

0000000000002076 <sbrkarg>:
{
    2076:	7179                	addi	sp,sp,-48
    2078:	f406                	sd	ra,40(sp)
    207a:	f022                	sd	s0,32(sp)
    207c:	ec26                	sd	s1,24(sp)
    207e:	e84a                	sd	s2,16(sp)
    2080:	e44e                	sd	s3,8(sp)
    2082:	1800                	addi	s0,sp,48
    2084:	89aa                	mv	s3,a0
  a = sbrk(PGSIZE);
    2086:	6505                	lui	a0,0x1
    2088:	00003097          	auipc	ra,0x3
    208c:	8f0080e7          	jalr	-1808(ra) # 4978 <sbrk>
    2090:	892a                	mv	s2,a0
  fd = open("sbrk", O_CREATE|O_WRONLY);
    2092:	20100593          	li	a1,513
    2096:	00004517          	auipc	a0,0x4
    209a:	d1a50513          	addi	a0,a0,-742 # 5db0 <malloc+0x104c>
    209e:	00003097          	auipc	ra,0x3
    20a2:	8aa080e7          	jalr	-1878(ra) # 4948 <open>
    20a6:	84aa                	mv	s1,a0
  remove("sbrk");
    20a8:	00004517          	auipc	a0,0x4
    20ac:	d0850513          	addi	a0,a0,-760 # 5db0 <malloc+0x104c>
    20b0:	00003097          	auipc	ra,0x3
    20b4:	900080e7          	jalr	-1792(ra) # 49b0 <remove>
  if(fd < 0)  {
    20b8:	0404c163          	bltz	s1,20fa <sbrkarg+0x84>
  if ((n = write(fd, a, PGSIZE)) < 0) {
    20bc:	6605                	lui	a2,0x1
    20be:	85ca                	mv	a1,s2
    20c0:	8526                	mv	a0,s1
    20c2:	00003097          	auipc	ra,0x3
    20c6:	866080e7          	jalr	-1946(ra) # 4928 <write>
    20ca:	04054663          	bltz	a0,2116 <sbrkarg+0xa0>
  close(fd);
    20ce:	8526                	mv	a0,s1
    20d0:	00003097          	auipc	ra,0x3
    20d4:	860080e7          	jalr	-1952(ra) # 4930 <close>
  a = sbrk(PGSIZE);
    20d8:	6505                	lui	a0,0x1
    20da:	00003097          	auipc	ra,0x3
    20de:	89e080e7          	jalr	-1890(ra) # 4978 <sbrk>
  if(pipe((int *) a) != 0){
    20e2:	00003097          	auipc	ra,0x3
    20e6:	836080e7          	jalr	-1994(ra) # 4918 <pipe>
    20ea:	e521                	bnez	a0,2132 <sbrkarg+0xbc>
}
    20ec:	70a2                	ld	ra,40(sp)
    20ee:	7402                	ld	s0,32(sp)
    20f0:	64e2                	ld	s1,24(sp)
    20f2:	6942                	ld	s2,16(sp)
    20f4:	69a2                	ld	s3,8(sp)
    20f6:	6145                	addi	sp,sp,48
    20f8:	8082                	ret
    printf("%s: open sbrk failed\n", s);
    20fa:	85ce                	mv	a1,s3
    20fc:	00004517          	auipc	a0,0x4
    2100:	cbc50513          	addi	a0,a0,-836 # 5db8 <malloc+0x1054>
    2104:	00003097          	auipc	ra,0x3
    2108:	ba2080e7          	jalr	-1118(ra) # 4ca6 <printf>
    exit(1);
    210c:	4505                	li	a0,1
    210e:	00002097          	auipc	ra,0x2
    2112:	7fa080e7          	jalr	2042(ra) # 4908 <exit>
    printf("%s: write sbrk failed\n", s);
    2116:	85ce                	mv	a1,s3
    2118:	00004517          	auipc	a0,0x4
    211c:	cb850513          	addi	a0,a0,-840 # 5dd0 <malloc+0x106c>
    2120:	00003097          	auipc	ra,0x3
    2124:	b86080e7          	jalr	-1146(ra) # 4ca6 <printf>
    exit(1);
    2128:	4505                	li	a0,1
    212a:	00002097          	auipc	ra,0x2
    212e:	7de080e7          	jalr	2014(ra) # 4908 <exit>
    printf("%s: pipe() failed\n", s);
    2132:	85ce                	mv	a1,s3
    2134:	00003517          	auipc	a0,0x3
    2138:	7cc50513          	addi	a0,a0,1996 # 5900 <malloc+0xb9c>
    213c:	00003097          	auipc	ra,0x3
    2140:	b6a080e7          	jalr	-1174(ra) # 4ca6 <printf>
    exit(1);
    2144:	4505                	li	a0,1
    2146:	00002097          	auipc	ra,0x2
    214a:	7c2080e7          	jalr	1986(ra) # 4908 <exit>

000000000000214e <argptest>:
{
    214e:	1101                	addi	sp,sp,-32
    2150:	ec06                	sd	ra,24(sp)
    2152:	e822                	sd	s0,16(sp)
    2154:	e426                	sd	s1,8(sp)
    2156:	e04a                	sd	s2,0(sp)
    2158:	1000                	addi	s0,sp,32
    215a:	892a                	mv	s2,a0
  fd = open("init", O_RDONLY);
    215c:	4581                	li	a1,0
    215e:	00004517          	auipc	a0,0x4
    2162:	c8a50513          	addi	a0,a0,-886 # 5de8 <malloc+0x1084>
    2166:	00002097          	auipc	ra,0x2
    216a:	7e2080e7          	jalr	2018(ra) # 4948 <open>
  if (fd < 0) {
    216e:	02054b63          	bltz	a0,21a4 <argptest+0x56>
    2172:	84aa                	mv	s1,a0
  read(fd, sbrk(0) - 1, -1);
    2174:	4501                	li	a0,0
    2176:	00003097          	auipc	ra,0x3
    217a:	802080e7          	jalr	-2046(ra) # 4978 <sbrk>
    217e:	567d                	li	a2,-1
    2180:	fff50593          	addi	a1,a0,-1
    2184:	8526                	mv	a0,s1
    2186:	00002097          	auipc	ra,0x2
    218a:	79a080e7          	jalr	1946(ra) # 4920 <read>
  close(fd);
    218e:	8526                	mv	a0,s1
    2190:	00002097          	auipc	ra,0x2
    2194:	7a0080e7          	jalr	1952(ra) # 4930 <close>
}
    2198:	60e2                	ld	ra,24(sp)
    219a:	6442                	ld	s0,16(sp)
    219c:	64a2                	ld	s1,8(sp)
    219e:	6902                	ld	s2,0(sp)
    21a0:	6105                	addi	sp,sp,32
    21a2:	8082                	ret
    printf("%s: open failed\n", s);
    21a4:	85ca                	mv	a1,s2
    21a6:	00003517          	auipc	a0,0x3
    21aa:	66a50513          	addi	a0,a0,1642 # 5810 <malloc+0xaac>
    21ae:	00003097          	auipc	ra,0x3
    21b2:	af8080e7          	jalr	-1288(ra) # 4ca6 <printf>
    exit(1);
    21b6:	4505                	li	a0,1
    21b8:	00002097          	auipc	ra,0x2
    21bc:	750080e7          	jalr	1872(ra) # 4908 <exit>

00000000000021c0 <sbrkbugs>:
{
    21c0:	1141                	addi	sp,sp,-16
    21c2:	e406                	sd	ra,8(sp)
    21c4:	e022                	sd	s0,0(sp)
    21c6:	0800                	addi	s0,sp,16
  int pid = fork();
    21c8:	00002097          	auipc	ra,0x2
    21cc:	738080e7          	jalr	1848(ra) # 4900 <fork>
  if(pid < 0){
    21d0:	02054263          	bltz	a0,21f4 <sbrkbugs+0x34>
  if(pid == 0){
    21d4:	ed0d                	bnez	a0,220e <sbrkbugs+0x4e>
    int sz = (uint64) sbrk(0);
    21d6:	00002097          	auipc	ra,0x2
    21da:	7a2080e7          	jalr	1954(ra) # 4978 <sbrk>
    sbrk(-sz);
    21de:	40a0053b          	negw	a0,a0
    21e2:	00002097          	auipc	ra,0x2
    21e6:	796080e7          	jalr	1942(ra) # 4978 <sbrk>
    exit(0);
    21ea:	4501                	li	a0,0
    21ec:	00002097          	auipc	ra,0x2
    21f0:	71c080e7          	jalr	1820(ra) # 4908 <exit>
    printf("fork failed\n");
    21f4:	00004517          	auipc	a0,0x4
    21f8:	98450513          	addi	a0,a0,-1660 # 5b78 <malloc+0xe14>
    21fc:	00003097          	auipc	ra,0x3
    2200:	aaa080e7          	jalr	-1366(ra) # 4ca6 <printf>
    exit(1);
    2204:	4505                	li	a0,1
    2206:	00002097          	auipc	ra,0x2
    220a:	702080e7          	jalr	1794(ra) # 4908 <exit>
  wait(0);
    220e:	4501                	li	a0,0
    2210:	00002097          	auipc	ra,0x2
    2214:	700080e7          	jalr	1792(ra) # 4910 <wait>
  pid = fork();
    2218:	00002097          	auipc	ra,0x2
    221c:	6e8080e7          	jalr	1768(ra) # 4900 <fork>
  if(pid < 0){
    2220:	02054563          	bltz	a0,224a <sbrkbugs+0x8a>
  if(pid == 0){
    2224:	e121                	bnez	a0,2264 <sbrkbugs+0xa4>
    int sz = (uint64) sbrk(0);
    2226:	00002097          	auipc	ra,0x2
    222a:	752080e7          	jalr	1874(ra) # 4978 <sbrk>
    sbrk(-(sz - 3500));
    222e:	6785                	lui	a5,0x1
    2230:	dac7879b          	addiw	a5,a5,-596
    2234:	40a7853b          	subw	a0,a5,a0
    2238:	00002097          	auipc	ra,0x2
    223c:	740080e7          	jalr	1856(ra) # 4978 <sbrk>
    exit(0);
    2240:	4501                	li	a0,0
    2242:	00002097          	auipc	ra,0x2
    2246:	6c6080e7          	jalr	1734(ra) # 4908 <exit>
    printf("fork failed\n");
    224a:	00004517          	auipc	a0,0x4
    224e:	92e50513          	addi	a0,a0,-1746 # 5b78 <malloc+0xe14>
    2252:	00003097          	auipc	ra,0x3
    2256:	a54080e7          	jalr	-1452(ra) # 4ca6 <printf>
    exit(1);
    225a:	4505                	li	a0,1
    225c:	00002097          	auipc	ra,0x2
    2260:	6ac080e7          	jalr	1708(ra) # 4908 <exit>
  wait(0);
    2264:	4501                	li	a0,0
    2266:	00002097          	auipc	ra,0x2
    226a:	6aa080e7          	jalr	1706(ra) # 4910 <wait>
  pid = fork();
    226e:	00002097          	auipc	ra,0x2
    2272:	692080e7          	jalr	1682(ra) # 4900 <fork>
  if(pid < 0){
    2276:	02054a63          	bltz	a0,22aa <sbrkbugs+0xea>
  if(pid == 0){
    227a:	e529                	bnez	a0,22c4 <sbrkbugs+0x104>
    sbrk((10*4096 + 2048) - (uint64)sbrk(0));
    227c:	00002097          	auipc	ra,0x2
    2280:	6fc080e7          	jalr	1788(ra) # 4978 <sbrk>
    2284:	67ad                	lui	a5,0xb
    2286:	8007879b          	addiw	a5,a5,-2048
    228a:	40a7853b          	subw	a0,a5,a0
    228e:	00002097          	auipc	ra,0x2
    2292:	6ea080e7          	jalr	1770(ra) # 4978 <sbrk>
    sbrk(-10);
    2296:	5559                	li	a0,-10
    2298:	00002097          	auipc	ra,0x2
    229c:	6e0080e7          	jalr	1760(ra) # 4978 <sbrk>
    exit(0);
    22a0:	4501                	li	a0,0
    22a2:	00002097          	auipc	ra,0x2
    22a6:	666080e7          	jalr	1638(ra) # 4908 <exit>
    printf("fork failed\n");
    22aa:	00004517          	auipc	a0,0x4
    22ae:	8ce50513          	addi	a0,a0,-1842 # 5b78 <malloc+0xe14>
    22b2:	00003097          	auipc	ra,0x3
    22b6:	9f4080e7          	jalr	-1548(ra) # 4ca6 <printf>
    exit(1);
    22ba:	4505                	li	a0,1
    22bc:	00002097          	auipc	ra,0x2
    22c0:	64c080e7          	jalr	1612(ra) # 4908 <exit>
  wait(0);
    22c4:	4501                	li	a0,0
    22c6:	00002097          	auipc	ra,0x2
    22ca:	64a080e7          	jalr	1610(ra) # 4910 <wait>
  exit(0);
    22ce:	4501                	li	a0,0
    22d0:	00002097          	auipc	ra,0x2
    22d4:	638080e7          	jalr	1592(ra) # 4908 <exit>

00000000000022d8 <execout>:
// test the exec() code that cleans up if it runs out
// of memory. it's really a test that such a condition
// doesn't cause a panic.
void
execout(char *s)
{
    22d8:	715d                	addi	sp,sp,-80
    22da:	e486                	sd	ra,72(sp)
    22dc:	e0a2                	sd	s0,64(sp)
    22de:	fc26                	sd	s1,56(sp)
    22e0:	f84a                	sd	s2,48(sp)
    22e2:	f44e                	sd	s3,40(sp)
    22e4:	f052                	sd	s4,32(sp)
    22e6:	0880                	addi	s0,sp,80
  for(int avail = 0; avail < 15; avail++){
    22e8:	4901                	li	s2,0
    22ea:	49bd                	li	s3,15
    int pid = fork();
    22ec:	00002097          	auipc	ra,0x2
    22f0:	614080e7          	jalr	1556(ra) # 4900 <fork>
    22f4:	84aa                	mv	s1,a0
    if(pid < 0){
    22f6:	02054063          	bltz	a0,2316 <execout+0x3e>
      printf("fork failed\n");
      exit(1);
    } else if(pid == 0){
    22fa:	c91d                	beqz	a0,2330 <execout+0x58>
      close(1);
      char *args[] = { "echo", "x", 0 };
      exec("echo", args);
      exit(0);
    } else {
      wait((int*)0);
    22fc:	4501                	li	a0,0
    22fe:	00002097          	auipc	ra,0x2
    2302:	612080e7          	jalr	1554(ra) # 4910 <wait>
  for(int avail = 0; avail < 15; avail++){
    2306:	2905                	addiw	s2,s2,1
    2308:	ff3912e3          	bne	s2,s3,22ec <execout+0x14>
    }
  }

  exit(0);
    230c:	4501                	li	a0,0
    230e:	00002097          	auipc	ra,0x2
    2312:	5fa080e7          	jalr	1530(ra) # 4908 <exit>
      printf("fork failed\n");
    2316:	00004517          	auipc	a0,0x4
    231a:	86250513          	addi	a0,a0,-1950 # 5b78 <malloc+0xe14>
    231e:	00003097          	auipc	ra,0x3
    2322:	988080e7          	jalr	-1656(ra) # 4ca6 <printf>
      exit(1);
    2326:	4505                	li	a0,1
    2328:	00002097          	auipc	ra,0x2
    232c:	5e0080e7          	jalr	1504(ra) # 4908 <exit>
        if(a == 0xffffffffffffffffLL)
    2330:	59fd                	li	s3,-1
        *(char*)(a + 4096 - 1) = 1;
    2332:	4a05                	li	s4,1
        uint64 a = (uint64) sbrk(4096);
    2334:	6505                	lui	a0,0x1
    2336:	00002097          	auipc	ra,0x2
    233a:	642080e7          	jalr	1602(ra) # 4978 <sbrk>
        if(a == 0xffffffffffffffffLL)
    233e:	01350763          	beq	a0,s3,234c <execout+0x74>
        *(char*)(a + 4096 - 1) = 1;
    2342:	6785                	lui	a5,0x1
    2344:	953e                	add	a0,a0,a5
    2346:	ff450fa3          	sb	s4,-1(a0) # fff <copyinstr2+0xbb>
      while(1){
    234a:	b7ed                	j	2334 <execout+0x5c>
      for(int i = 0; i < avail; i++)
    234c:	01205a63          	blez	s2,2360 <execout+0x88>
        sbrk(-4096);
    2350:	757d                	lui	a0,0xfffff
    2352:	00002097          	auipc	ra,0x2
    2356:	626080e7          	jalr	1574(ra) # 4978 <sbrk>
      for(int i = 0; i < avail; i++)
    235a:	2485                	addiw	s1,s1,1
    235c:	ff249ae3          	bne	s1,s2,2350 <execout+0x78>
      close(1);
    2360:	4505                	li	a0,1
    2362:	00002097          	auipc	ra,0x2
    2366:	5ce080e7          	jalr	1486(ra) # 4930 <close>
      char *args[] = { "echo", "x", 0 };
    236a:	00003517          	auipc	a0,0x3
    236e:	e1e50513          	addi	a0,a0,-482 # 5188 <malloc+0x424>
    2372:	faa43c23          	sd	a0,-72(s0)
    2376:	00003797          	auipc	a5,0x3
    237a:	e8278793          	addi	a5,a5,-382 # 51f8 <malloc+0x494>
    237e:	fcf43023          	sd	a5,-64(s0)
    2382:	fc043423          	sd	zero,-56(s0)
      exec("echo", args);
    2386:	fb840593          	addi	a1,s0,-72
    238a:	00002097          	auipc	ra,0x2
    238e:	5b6080e7          	jalr	1462(ra) # 4940 <exec>
      exit(0);
    2392:	4501                	li	a0,0
    2394:	00002097          	auipc	ra,0x2
    2398:	574080e7          	jalr	1396(ra) # 4908 <exit>

000000000000239c <iputtest>:
{
    239c:	1101                	addi	sp,sp,-32
    239e:	ec06                	sd	ra,24(sp)
    23a0:	e822                	sd	s0,16(sp)
    23a2:	e426                	sd	s1,8(sp)
    23a4:	1000                	addi	s0,sp,32
    23a6:	84aa                	mv	s1,a0
  if(mkdir("iputdir") < 0){
    23a8:	00004517          	auipc	a0,0x4
    23ac:	a4850513          	addi	a0,a0,-1464 # 5df0 <malloc+0x108c>
    23b0:	00002097          	auipc	ra,0x2
    23b4:	5a8080e7          	jalr	1448(ra) # 4958 <mkdir>
    23b8:	04054563          	bltz	a0,2402 <iputtest+0x66>
  if(chdir("iputdir") < 0){
    23bc:	00004517          	auipc	a0,0x4
    23c0:	a3450513          	addi	a0,a0,-1484 # 5df0 <malloc+0x108c>
    23c4:	00002097          	auipc	ra,0x2
    23c8:	59c080e7          	jalr	1436(ra) # 4960 <chdir>
    23cc:	04054963          	bltz	a0,241e <iputtest+0x82>
  if(remove("../iputdir") < 0){
    23d0:	00004517          	auipc	a0,0x4
    23d4:	a6050513          	addi	a0,a0,-1440 # 5e30 <malloc+0x10cc>
    23d8:	00002097          	auipc	ra,0x2
    23dc:	5d8080e7          	jalr	1496(ra) # 49b0 <remove>
    23e0:	04054d63          	bltz	a0,243a <iputtest+0x9e>
  if(chdir("/") < 0){
    23e4:	00004517          	auipc	a0,0x4
    23e8:	a7c50513          	addi	a0,a0,-1412 # 5e60 <malloc+0x10fc>
    23ec:	00002097          	auipc	ra,0x2
    23f0:	574080e7          	jalr	1396(ra) # 4960 <chdir>
    23f4:	06054163          	bltz	a0,2456 <iputtest+0xba>
}
    23f8:	60e2                	ld	ra,24(sp)
    23fa:	6442                	ld	s0,16(sp)
    23fc:	64a2                	ld	s1,8(sp)
    23fe:	6105                	addi	sp,sp,32
    2400:	8082                	ret
    printf("%s: mkdir failed\n", s);
    2402:	85a6                	mv	a1,s1
    2404:	00004517          	auipc	a0,0x4
    2408:	9f450513          	addi	a0,a0,-1548 # 5df8 <malloc+0x1094>
    240c:	00003097          	auipc	ra,0x3
    2410:	89a080e7          	jalr	-1894(ra) # 4ca6 <printf>
    exit(1);
    2414:	4505                	li	a0,1
    2416:	00002097          	auipc	ra,0x2
    241a:	4f2080e7          	jalr	1266(ra) # 4908 <exit>
    printf("%s: chdir iputdir failed\n", s);
    241e:	85a6                	mv	a1,s1
    2420:	00004517          	auipc	a0,0x4
    2424:	9f050513          	addi	a0,a0,-1552 # 5e10 <malloc+0x10ac>
    2428:	00003097          	auipc	ra,0x3
    242c:	87e080e7          	jalr	-1922(ra) # 4ca6 <printf>
    exit(1);
    2430:	4505                	li	a0,1
    2432:	00002097          	auipc	ra,0x2
    2436:	4d6080e7          	jalr	1238(ra) # 4908 <exit>
    printf("%s: remove ../iputdir failed\n", s);
    243a:	85a6                	mv	a1,s1
    243c:	00004517          	auipc	a0,0x4
    2440:	a0450513          	addi	a0,a0,-1532 # 5e40 <malloc+0x10dc>
    2444:	00003097          	auipc	ra,0x3
    2448:	862080e7          	jalr	-1950(ra) # 4ca6 <printf>
    exit(1);
    244c:	4505                	li	a0,1
    244e:	00002097          	auipc	ra,0x2
    2452:	4ba080e7          	jalr	1210(ra) # 4908 <exit>
    printf("%s: chdir / failed\n", s);
    2456:	85a6                	mv	a1,s1
    2458:	00004517          	auipc	a0,0x4
    245c:	a1050513          	addi	a0,a0,-1520 # 5e68 <malloc+0x1104>
    2460:	00003097          	auipc	ra,0x3
    2464:	846080e7          	jalr	-1978(ra) # 4ca6 <printf>
    exit(1);
    2468:	4505                	li	a0,1
    246a:	00002097          	auipc	ra,0x2
    246e:	49e080e7          	jalr	1182(ra) # 4908 <exit>

0000000000002472 <exitiputtest>:
{
    2472:	7179                	addi	sp,sp,-48
    2474:	f406                	sd	ra,40(sp)
    2476:	f022                	sd	s0,32(sp)
    2478:	ec26                	sd	s1,24(sp)
    247a:	1800                	addi	s0,sp,48
    247c:	84aa                	mv	s1,a0
  pid = fork();
    247e:	00002097          	auipc	ra,0x2
    2482:	482080e7          	jalr	1154(ra) # 4900 <fork>
  if(pid < 0){
    2486:	04054663          	bltz	a0,24d2 <exitiputtest+0x60>
  if(pid == 0){
    248a:	ed45                	bnez	a0,2542 <exitiputtest+0xd0>
    if(mkdir("iputdir") < 0){
    248c:	00004517          	auipc	a0,0x4
    2490:	96450513          	addi	a0,a0,-1692 # 5df0 <malloc+0x108c>
    2494:	00002097          	auipc	ra,0x2
    2498:	4c4080e7          	jalr	1220(ra) # 4958 <mkdir>
    249c:	04054963          	bltz	a0,24ee <exitiputtest+0x7c>
    if(chdir("iputdir") < 0){
    24a0:	00004517          	auipc	a0,0x4
    24a4:	95050513          	addi	a0,a0,-1712 # 5df0 <malloc+0x108c>
    24a8:	00002097          	auipc	ra,0x2
    24ac:	4b8080e7          	jalr	1208(ra) # 4960 <chdir>
    24b0:	04054d63          	bltz	a0,250a <exitiputtest+0x98>
    if(remove("../iputdir") < 0){
    24b4:	00004517          	auipc	a0,0x4
    24b8:	97c50513          	addi	a0,a0,-1668 # 5e30 <malloc+0x10cc>
    24bc:	00002097          	auipc	ra,0x2
    24c0:	4f4080e7          	jalr	1268(ra) # 49b0 <remove>
    24c4:	06054163          	bltz	a0,2526 <exitiputtest+0xb4>
    exit(0);
    24c8:	4501                	li	a0,0
    24ca:	00002097          	auipc	ra,0x2
    24ce:	43e080e7          	jalr	1086(ra) # 4908 <exit>
    printf("%s: fork failed\n", s);
    24d2:	85a6                	mv	a1,s1
    24d4:	00003517          	auipc	a0,0x3
    24d8:	32450513          	addi	a0,a0,804 # 57f8 <malloc+0xa94>
    24dc:	00002097          	auipc	ra,0x2
    24e0:	7ca080e7          	jalr	1994(ra) # 4ca6 <printf>
    exit(1);
    24e4:	4505                	li	a0,1
    24e6:	00002097          	auipc	ra,0x2
    24ea:	422080e7          	jalr	1058(ra) # 4908 <exit>
      printf("%s: mkdir failed\n", s);
    24ee:	85a6                	mv	a1,s1
    24f0:	00004517          	auipc	a0,0x4
    24f4:	90850513          	addi	a0,a0,-1784 # 5df8 <malloc+0x1094>
    24f8:	00002097          	auipc	ra,0x2
    24fc:	7ae080e7          	jalr	1966(ra) # 4ca6 <printf>
      exit(1);
    2500:	4505                	li	a0,1
    2502:	00002097          	auipc	ra,0x2
    2506:	406080e7          	jalr	1030(ra) # 4908 <exit>
      printf("%s: child chdir failed\n", s);
    250a:	85a6                	mv	a1,s1
    250c:	00004517          	auipc	a0,0x4
    2510:	97450513          	addi	a0,a0,-1676 # 5e80 <malloc+0x111c>
    2514:	00002097          	auipc	ra,0x2
    2518:	792080e7          	jalr	1938(ra) # 4ca6 <printf>
      exit(1);
    251c:	4505                	li	a0,1
    251e:	00002097          	auipc	ra,0x2
    2522:	3ea080e7          	jalr	1002(ra) # 4908 <exit>
      printf("%s: remove ../iputdir failed\n", s);
    2526:	85a6                	mv	a1,s1
    2528:	00004517          	auipc	a0,0x4
    252c:	91850513          	addi	a0,a0,-1768 # 5e40 <malloc+0x10dc>
    2530:	00002097          	auipc	ra,0x2
    2534:	776080e7          	jalr	1910(ra) # 4ca6 <printf>
      exit(1);
    2538:	4505                	li	a0,1
    253a:	00002097          	auipc	ra,0x2
    253e:	3ce080e7          	jalr	974(ra) # 4908 <exit>
  wait(&xstatus);
    2542:	fdc40513          	addi	a0,s0,-36
    2546:	00002097          	auipc	ra,0x2
    254a:	3ca080e7          	jalr	970(ra) # 4910 <wait>
  exit(xstatus);
    254e:	fdc42503          	lw	a0,-36(s0)
    2552:	00002097          	auipc	ra,0x2
    2556:	3b6080e7          	jalr	950(ra) # 4908 <exit>

000000000000255a <subdir>:
{
    255a:	1101                	addi	sp,sp,-32
    255c:	ec06                	sd	ra,24(sp)
    255e:	e822                	sd	s0,16(sp)
    2560:	e426                	sd	s1,8(sp)
    2562:	e04a                	sd	s2,0(sp)
    2564:	1000                	addi	s0,sp,32
    2566:	892a                	mv	s2,a0
  remove("ff");
    2568:	00004517          	auipc	a0,0x4
    256c:	93050513          	addi	a0,a0,-1744 # 5e98 <malloc+0x1134>
    2570:	00002097          	auipc	ra,0x2
    2574:	440080e7          	jalr	1088(ra) # 49b0 <remove>
  if(mkdir("dd") != 0){
    2578:	00004517          	auipc	a0,0x4
    257c:	92850513          	addi	a0,a0,-1752 # 5ea0 <malloc+0x113c>
    2580:	00002097          	auipc	ra,0x2
    2584:	3d8080e7          	jalr	984(ra) # 4958 <mkdir>
    2588:	24051363          	bnez	a0,27ce <subdir+0x274>
  fd = open("dd/ff", O_CREATE | O_RDWR);
    258c:	20200593          	li	a1,514
    2590:	00004517          	auipc	a0,0x4
    2594:	93050513          	addi	a0,a0,-1744 # 5ec0 <malloc+0x115c>
    2598:	00002097          	auipc	ra,0x2
    259c:	3b0080e7          	jalr	944(ra) # 4948 <open>
    25a0:	84aa                	mv	s1,a0
  if(fd < 0){
    25a2:	24054463          	bltz	a0,27ea <subdir+0x290>
  write(fd, "ff", 2);
    25a6:	4609                	li	a2,2
    25a8:	00004597          	auipc	a1,0x4
    25ac:	8f058593          	addi	a1,a1,-1808 # 5e98 <malloc+0x1134>
    25b0:	00002097          	auipc	ra,0x2
    25b4:	378080e7          	jalr	888(ra) # 4928 <write>
  close(fd);
    25b8:	8526                	mv	a0,s1
    25ba:	00002097          	auipc	ra,0x2
    25be:	376080e7          	jalr	886(ra) # 4930 <close>
  if(remove("dd") >= 0){
    25c2:	00004517          	auipc	a0,0x4
    25c6:	8de50513          	addi	a0,a0,-1826 # 5ea0 <malloc+0x113c>
    25ca:	00002097          	auipc	ra,0x2
    25ce:	3e6080e7          	jalr	998(ra) # 49b0 <remove>
    25d2:	22055a63          	bgez	a0,2806 <subdir+0x2ac>
  if(mkdir("/dd/dd") != 0){
    25d6:	00004517          	auipc	a0,0x4
    25da:	94250513          	addi	a0,a0,-1726 # 5f18 <malloc+0x11b4>
    25de:	00002097          	auipc	ra,0x2
    25e2:	37a080e7          	jalr	890(ra) # 4958 <mkdir>
    25e6:	22051e63          	bnez	a0,2822 <subdir+0x2c8>
  fd = open("dd/dd/ff", O_CREATE | O_RDWR);
    25ea:	20200593          	li	a1,514
    25ee:	00004517          	auipc	a0,0x4
    25f2:	95250513          	addi	a0,a0,-1710 # 5f40 <malloc+0x11dc>
    25f6:	00002097          	auipc	ra,0x2
    25fa:	352080e7          	jalr	850(ra) # 4948 <open>
    25fe:	84aa                	mv	s1,a0
  if(fd < 0){
    2600:	22054f63          	bltz	a0,283e <subdir+0x2e4>
  write(fd, "FF", 2);
    2604:	4609                	li	a2,2
    2606:	00004597          	auipc	a1,0x4
    260a:	96a58593          	addi	a1,a1,-1686 # 5f70 <malloc+0x120c>
    260e:	00002097          	auipc	ra,0x2
    2612:	31a080e7          	jalr	794(ra) # 4928 <write>
  close(fd);
    2616:	8526                	mv	a0,s1
    2618:	00002097          	auipc	ra,0x2
    261c:	318080e7          	jalr	792(ra) # 4930 <close>
  fd = open("dd/dd/../ff", 0);
    2620:	4581                	li	a1,0
    2622:	00004517          	auipc	a0,0x4
    2626:	95650513          	addi	a0,a0,-1706 # 5f78 <malloc+0x1214>
    262a:	00002097          	auipc	ra,0x2
    262e:	31e080e7          	jalr	798(ra) # 4948 <open>
    2632:	84aa                	mv	s1,a0
  if(fd < 0){
    2634:	22054363          	bltz	a0,285a <subdir+0x300>
  cc = read(fd, buf, sizeof(buf));
    2638:	6609                	lui	a2,0x2
    263a:	80060613          	addi	a2,a2,-2048 # 1800 <forkfork+0x3e>
    263e:	00008597          	auipc	a1,0x8
    2642:	1e258593          	addi	a1,a1,482 # a820 <buf>
    2646:	00002097          	auipc	ra,0x2
    264a:	2da080e7          	jalr	730(ra) # 4920 <read>
  if(cc != 2 || buf[0] != 'f'){
    264e:	4789                	li	a5,2
    2650:	22f51363          	bne	a0,a5,2876 <subdir+0x31c>
    2654:	00008717          	auipc	a4,0x8
    2658:	1cc74703          	lbu	a4,460(a4) # a820 <buf>
    265c:	06600793          	li	a5,102
    2660:	20f71b63          	bne	a4,a5,2876 <subdir+0x31c>
  close(fd);
    2664:	8526                	mv	a0,s1
    2666:	00002097          	auipc	ra,0x2
    266a:	2ca080e7          	jalr	714(ra) # 4930 <close>
  if(remove("dd/dd/ff") != 0){
    266e:	00004517          	auipc	a0,0x4
    2672:	8d250513          	addi	a0,a0,-1838 # 5f40 <malloc+0x11dc>
    2676:	00002097          	auipc	ra,0x2
    267a:	33a080e7          	jalr	826(ra) # 49b0 <remove>
    267e:	20051a63          	bnez	a0,2892 <subdir+0x338>
  if(open("dd/dd/ff", O_RDONLY) >= 0){
    2682:	4581                	li	a1,0
    2684:	00004517          	auipc	a0,0x4
    2688:	8bc50513          	addi	a0,a0,-1860 # 5f40 <malloc+0x11dc>
    268c:	00002097          	auipc	ra,0x2
    2690:	2bc080e7          	jalr	700(ra) # 4948 <open>
    2694:	20055d63          	bgez	a0,28ae <subdir+0x354>
  if(chdir("dd") != 0){
    2698:	00004517          	auipc	a0,0x4
    269c:	80850513          	addi	a0,a0,-2040 # 5ea0 <malloc+0x113c>
    26a0:	00002097          	auipc	ra,0x2
    26a4:	2c0080e7          	jalr	704(ra) # 4960 <chdir>
    26a8:	22051163          	bnez	a0,28ca <subdir+0x370>
  if(chdir("dd/../../dd") != 0){
    26ac:	00004517          	auipc	a0,0x4
    26b0:	97c50513          	addi	a0,a0,-1668 # 6028 <malloc+0x12c4>
    26b4:	00002097          	auipc	ra,0x2
    26b8:	2ac080e7          	jalr	684(ra) # 4960 <chdir>
    26bc:	22051563          	bnez	a0,28e6 <subdir+0x38c>
  if(chdir("dd/../../../dd") != 0){
    26c0:	00004517          	auipc	a0,0x4
    26c4:	99850513          	addi	a0,a0,-1640 # 6058 <malloc+0x12f4>
    26c8:	00002097          	auipc	ra,0x2
    26cc:	298080e7          	jalr	664(ra) # 4960 <chdir>
    26d0:	22051963          	bnez	a0,2902 <subdir+0x3a8>
  if(chdir("./..") != 0){
    26d4:	00004517          	auipc	a0,0x4
    26d8:	9b450513          	addi	a0,a0,-1612 # 6088 <malloc+0x1324>
    26dc:	00002097          	auipc	ra,0x2
    26e0:	284080e7          	jalr	644(ra) # 4960 <chdir>
    26e4:	22051d63          	bnez	a0,291e <subdir+0x3c4>
  if(open("dd/dd/ff", O_RDONLY) >= 0){
    26e8:	4581                	li	a1,0
    26ea:	00004517          	auipc	a0,0x4
    26ee:	85650513          	addi	a0,a0,-1962 # 5f40 <malloc+0x11dc>
    26f2:	00002097          	auipc	ra,0x2
    26f6:	256080e7          	jalr	598(ra) # 4948 <open>
    26fa:	24055063          	bgez	a0,293a <subdir+0x3e0>
  if(open("dd/ff/ff", O_CREATE|O_RDWR) >= 0){
    26fe:	20200593          	li	a1,514
    2702:	00004517          	auipc	a0,0x4
    2706:	9d650513          	addi	a0,a0,-1578 # 60d8 <malloc+0x1374>
    270a:	00002097          	auipc	ra,0x2
    270e:	23e080e7          	jalr	574(ra) # 4948 <open>
    2712:	24055263          	bgez	a0,2956 <subdir+0x3fc>
  if(open("dd/xx/ff", O_CREATE|O_RDWR) >= 0){
    2716:	20200593          	li	a1,514
    271a:	00004517          	auipc	a0,0x4
    271e:	9ee50513          	addi	a0,a0,-1554 # 6108 <malloc+0x13a4>
    2722:	00002097          	auipc	ra,0x2
    2726:	226080e7          	jalr	550(ra) # 4948 <open>
    272a:	24055463          	bgez	a0,2972 <subdir+0x418>
  if(open("dd", O_CREATE) >= 0){
    272e:	20000593          	li	a1,512
    2732:	00003517          	auipc	a0,0x3
    2736:	76e50513          	addi	a0,a0,1902 # 5ea0 <malloc+0x113c>
    273a:	00002097          	auipc	ra,0x2
    273e:	20e080e7          	jalr	526(ra) # 4948 <open>
    2742:	24055663          	bgez	a0,298e <subdir+0x434>
  if(open("dd", O_RDWR) >= 0){
    2746:	4589                	li	a1,2
    2748:	00003517          	auipc	a0,0x3
    274c:	75850513          	addi	a0,a0,1880 # 5ea0 <malloc+0x113c>
    2750:	00002097          	auipc	ra,0x2
    2754:	1f8080e7          	jalr	504(ra) # 4948 <open>
    2758:	24055963          	bgez	a0,29aa <subdir+0x450>
  if(open("dd", O_WRONLY) >= 0){
    275c:	4585                	li	a1,1
    275e:	00003517          	auipc	a0,0x3
    2762:	74250513          	addi	a0,a0,1858 # 5ea0 <malloc+0x113c>
    2766:	00002097          	auipc	ra,0x2
    276a:	1e2080e7          	jalr	482(ra) # 4948 <open>
    276e:	24055c63          	bgez	a0,29c6 <subdir+0x46c>
  if(remove("dd/ff") != 0){
    2772:	00003517          	auipc	a0,0x3
    2776:	74e50513          	addi	a0,a0,1870 # 5ec0 <malloc+0x115c>
    277a:	00002097          	auipc	ra,0x2
    277e:	236080e7          	jalr	566(ra) # 49b0 <remove>
    2782:	26051063          	bnez	a0,29e2 <subdir+0x488>
  if(remove("dd") == 0){
    2786:	00003517          	auipc	a0,0x3
    278a:	71a50513          	addi	a0,a0,1818 # 5ea0 <malloc+0x113c>
    278e:	00002097          	auipc	ra,0x2
    2792:	222080e7          	jalr	546(ra) # 49b0 <remove>
    2796:	26050463          	beqz	a0,29fe <subdir+0x4a4>
  if(remove("dd/dd") < 0){
    279a:	00004517          	auipc	a0,0x4
    279e:	a4650513          	addi	a0,a0,-1466 # 61e0 <malloc+0x147c>
    27a2:	00002097          	auipc	ra,0x2
    27a6:	20e080e7          	jalr	526(ra) # 49b0 <remove>
    27aa:	26054863          	bltz	a0,2a1a <subdir+0x4c0>
  if(remove("dd") < 0){
    27ae:	00003517          	auipc	a0,0x3
    27b2:	6f250513          	addi	a0,a0,1778 # 5ea0 <malloc+0x113c>
    27b6:	00002097          	auipc	ra,0x2
    27ba:	1fa080e7          	jalr	506(ra) # 49b0 <remove>
    27be:	26054c63          	bltz	a0,2a36 <subdir+0x4dc>
}
    27c2:	60e2                	ld	ra,24(sp)
    27c4:	6442                	ld	s0,16(sp)
    27c6:	64a2                	ld	s1,8(sp)
    27c8:	6902                	ld	s2,0(sp)
    27ca:	6105                	addi	sp,sp,32
    27cc:	8082                	ret
    printf("%s: mkdir dd failed\n", s);
    27ce:	85ca                	mv	a1,s2
    27d0:	00003517          	auipc	a0,0x3
    27d4:	6d850513          	addi	a0,a0,1752 # 5ea8 <malloc+0x1144>
    27d8:	00002097          	auipc	ra,0x2
    27dc:	4ce080e7          	jalr	1230(ra) # 4ca6 <printf>
    exit(1);
    27e0:	4505                	li	a0,1
    27e2:	00002097          	auipc	ra,0x2
    27e6:	126080e7          	jalr	294(ra) # 4908 <exit>
    printf("%s: create dd/ff failed\n", s);
    27ea:	85ca                	mv	a1,s2
    27ec:	00003517          	auipc	a0,0x3
    27f0:	6dc50513          	addi	a0,a0,1756 # 5ec8 <malloc+0x1164>
    27f4:	00002097          	auipc	ra,0x2
    27f8:	4b2080e7          	jalr	1202(ra) # 4ca6 <printf>
    exit(1);
    27fc:	4505                	li	a0,1
    27fe:	00002097          	auipc	ra,0x2
    2802:	10a080e7          	jalr	266(ra) # 4908 <exit>
    printf("%s: remove dd (non-empty dir) succeeded!\n", s);
    2806:	85ca                	mv	a1,s2
    2808:	00003517          	auipc	a0,0x3
    280c:	6e050513          	addi	a0,a0,1760 # 5ee8 <malloc+0x1184>
    2810:	00002097          	auipc	ra,0x2
    2814:	496080e7          	jalr	1174(ra) # 4ca6 <printf>
    exit(1);
    2818:	4505                	li	a0,1
    281a:	00002097          	auipc	ra,0x2
    281e:	0ee080e7          	jalr	238(ra) # 4908 <exit>
    printf("subdir mkdir dd/dd failed\n", s);
    2822:	85ca                	mv	a1,s2
    2824:	00003517          	auipc	a0,0x3
    2828:	6fc50513          	addi	a0,a0,1788 # 5f20 <malloc+0x11bc>
    282c:	00002097          	auipc	ra,0x2
    2830:	47a080e7          	jalr	1146(ra) # 4ca6 <printf>
    exit(1);
    2834:	4505                	li	a0,1
    2836:	00002097          	auipc	ra,0x2
    283a:	0d2080e7          	jalr	210(ra) # 4908 <exit>
    printf("%s: create dd/dd/ff failed\n", s);
    283e:	85ca                	mv	a1,s2
    2840:	00003517          	auipc	a0,0x3
    2844:	71050513          	addi	a0,a0,1808 # 5f50 <malloc+0x11ec>
    2848:	00002097          	auipc	ra,0x2
    284c:	45e080e7          	jalr	1118(ra) # 4ca6 <printf>
    exit(1);
    2850:	4505                	li	a0,1
    2852:	00002097          	auipc	ra,0x2
    2856:	0b6080e7          	jalr	182(ra) # 4908 <exit>
    printf("%s: open dd/dd/../ff failed\n", s);
    285a:	85ca                	mv	a1,s2
    285c:	00003517          	auipc	a0,0x3
    2860:	72c50513          	addi	a0,a0,1836 # 5f88 <malloc+0x1224>
    2864:	00002097          	auipc	ra,0x2
    2868:	442080e7          	jalr	1090(ra) # 4ca6 <printf>
    exit(1);
    286c:	4505                	li	a0,1
    286e:	00002097          	auipc	ra,0x2
    2872:	09a080e7          	jalr	154(ra) # 4908 <exit>
    printf("%s: dd/dd/../ff wrong content\n", s);
    2876:	85ca                	mv	a1,s2
    2878:	00003517          	auipc	a0,0x3
    287c:	73050513          	addi	a0,a0,1840 # 5fa8 <malloc+0x1244>
    2880:	00002097          	auipc	ra,0x2
    2884:	426080e7          	jalr	1062(ra) # 4ca6 <printf>
    exit(1);
    2888:	4505                	li	a0,1
    288a:	00002097          	auipc	ra,0x2
    288e:	07e080e7          	jalr	126(ra) # 4908 <exit>
    printf("%s: remove dd/dd/ff failed\n", s);
    2892:	85ca                	mv	a1,s2
    2894:	00003517          	auipc	a0,0x3
    2898:	73450513          	addi	a0,a0,1844 # 5fc8 <malloc+0x1264>
    289c:	00002097          	auipc	ra,0x2
    28a0:	40a080e7          	jalr	1034(ra) # 4ca6 <printf>
    exit(1);
    28a4:	4505                	li	a0,1
    28a6:	00002097          	auipc	ra,0x2
    28aa:	062080e7          	jalr	98(ra) # 4908 <exit>
    printf("%s: open (removeed) dd/dd/ff succeeded\n", s);
    28ae:	85ca                	mv	a1,s2
    28b0:	00003517          	auipc	a0,0x3
    28b4:	73850513          	addi	a0,a0,1848 # 5fe8 <malloc+0x1284>
    28b8:	00002097          	auipc	ra,0x2
    28bc:	3ee080e7          	jalr	1006(ra) # 4ca6 <printf>
    exit(1);
    28c0:	4505                	li	a0,1
    28c2:	00002097          	auipc	ra,0x2
    28c6:	046080e7          	jalr	70(ra) # 4908 <exit>
    printf("%s: chdir dd failed\n", s);
    28ca:	85ca                	mv	a1,s2
    28cc:	00003517          	auipc	a0,0x3
    28d0:	74450513          	addi	a0,a0,1860 # 6010 <malloc+0x12ac>
    28d4:	00002097          	auipc	ra,0x2
    28d8:	3d2080e7          	jalr	978(ra) # 4ca6 <printf>
    exit(1);
    28dc:	4505                	li	a0,1
    28de:	00002097          	auipc	ra,0x2
    28e2:	02a080e7          	jalr	42(ra) # 4908 <exit>
    printf("%s: chdir dd/../../dd failed\n", s);
    28e6:	85ca                	mv	a1,s2
    28e8:	00003517          	auipc	a0,0x3
    28ec:	75050513          	addi	a0,a0,1872 # 6038 <malloc+0x12d4>
    28f0:	00002097          	auipc	ra,0x2
    28f4:	3b6080e7          	jalr	950(ra) # 4ca6 <printf>
    exit(1);
    28f8:	4505                	li	a0,1
    28fa:	00002097          	auipc	ra,0x2
    28fe:	00e080e7          	jalr	14(ra) # 4908 <exit>
    printf("chdir dd/../../dd failed\n", s);
    2902:	85ca                	mv	a1,s2
    2904:	00003517          	auipc	a0,0x3
    2908:	76450513          	addi	a0,a0,1892 # 6068 <malloc+0x1304>
    290c:	00002097          	auipc	ra,0x2
    2910:	39a080e7          	jalr	922(ra) # 4ca6 <printf>
    exit(1);
    2914:	4505                	li	a0,1
    2916:	00002097          	auipc	ra,0x2
    291a:	ff2080e7          	jalr	-14(ra) # 4908 <exit>
    printf("%s: chdir ./.. failed\n", s);
    291e:	85ca                	mv	a1,s2
    2920:	00003517          	auipc	a0,0x3
    2924:	77050513          	addi	a0,a0,1904 # 6090 <malloc+0x132c>
    2928:	00002097          	auipc	ra,0x2
    292c:	37e080e7          	jalr	894(ra) # 4ca6 <printf>
    exit(1);
    2930:	4505                	li	a0,1
    2932:	00002097          	auipc	ra,0x2
    2936:	fd6080e7          	jalr	-42(ra) # 4908 <exit>
    printf("%s: open (removeed) dd/dd/ff succeeded!\n", s);
    293a:	85ca                	mv	a1,s2
    293c:	00003517          	auipc	a0,0x3
    2940:	76c50513          	addi	a0,a0,1900 # 60a8 <malloc+0x1344>
    2944:	00002097          	auipc	ra,0x2
    2948:	362080e7          	jalr	866(ra) # 4ca6 <printf>
    exit(1);
    294c:	4505                	li	a0,1
    294e:	00002097          	auipc	ra,0x2
    2952:	fba080e7          	jalr	-70(ra) # 4908 <exit>
    printf("%s: create dd/ff/ff succeeded!\n", s);
    2956:	85ca                	mv	a1,s2
    2958:	00003517          	auipc	a0,0x3
    295c:	79050513          	addi	a0,a0,1936 # 60e8 <malloc+0x1384>
    2960:	00002097          	auipc	ra,0x2
    2964:	346080e7          	jalr	838(ra) # 4ca6 <printf>
    exit(1);
    2968:	4505                	li	a0,1
    296a:	00002097          	auipc	ra,0x2
    296e:	f9e080e7          	jalr	-98(ra) # 4908 <exit>
    printf("%s: create dd/xx/ff succeeded!\n", s);
    2972:	85ca                	mv	a1,s2
    2974:	00003517          	auipc	a0,0x3
    2978:	7a450513          	addi	a0,a0,1956 # 6118 <malloc+0x13b4>
    297c:	00002097          	auipc	ra,0x2
    2980:	32a080e7          	jalr	810(ra) # 4ca6 <printf>
    exit(1);
    2984:	4505                	li	a0,1
    2986:	00002097          	auipc	ra,0x2
    298a:	f82080e7          	jalr	-126(ra) # 4908 <exit>
    printf("%s: create dd succeeded!\n", s);
    298e:	85ca                	mv	a1,s2
    2990:	00003517          	auipc	a0,0x3
    2994:	7a850513          	addi	a0,a0,1960 # 6138 <malloc+0x13d4>
    2998:	00002097          	auipc	ra,0x2
    299c:	30e080e7          	jalr	782(ra) # 4ca6 <printf>
    exit(1);
    29a0:	4505                	li	a0,1
    29a2:	00002097          	auipc	ra,0x2
    29a6:	f66080e7          	jalr	-154(ra) # 4908 <exit>
    printf("%s: open dd rdwr succeeded!\n", s);
    29aa:	85ca                	mv	a1,s2
    29ac:	00003517          	auipc	a0,0x3
    29b0:	7ac50513          	addi	a0,a0,1964 # 6158 <malloc+0x13f4>
    29b4:	00002097          	auipc	ra,0x2
    29b8:	2f2080e7          	jalr	754(ra) # 4ca6 <printf>
    exit(1);
    29bc:	4505                	li	a0,1
    29be:	00002097          	auipc	ra,0x2
    29c2:	f4a080e7          	jalr	-182(ra) # 4908 <exit>
    printf("%s: open dd wronly succeeded!\n", s);
    29c6:	85ca                	mv	a1,s2
    29c8:	00003517          	auipc	a0,0x3
    29cc:	7b050513          	addi	a0,a0,1968 # 6178 <malloc+0x1414>
    29d0:	00002097          	auipc	ra,0x2
    29d4:	2d6080e7          	jalr	726(ra) # 4ca6 <printf>
    exit(1);
    29d8:	4505                	li	a0,1
    29da:	00002097          	auipc	ra,0x2
    29de:	f2e080e7          	jalr	-210(ra) # 4908 <exit>
    printf("%s: remove dd/ff failed\n", s);
    29e2:	85ca                	mv	a1,s2
    29e4:	00003517          	auipc	a0,0x3
    29e8:	7b450513          	addi	a0,a0,1972 # 6198 <malloc+0x1434>
    29ec:	00002097          	auipc	ra,0x2
    29f0:	2ba080e7          	jalr	698(ra) # 4ca6 <printf>
    exit(1);
    29f4:	4505                	li	a0,1
    29f6:	00002097          	auipc	ra,0x2
    29fa:	f12080e7          	jalr	-238(ra) # 4908 <exit>
    printf("%s: remove non-empty dd succeeded!\n", s);
    29fe:	85ca                	mv	a1,s2
    2a00:	00003517          	auipc	a0,0x3
    2a04:	7b850513          	addi	a0,a0,1976 # 61b8 <malloc+0x1454>
    2a08:	00002097          	auipc	ra,0x2
    2a0c:	29e080e7          	jalr	670(ra) # 4ca6 <printf>
    exit(1);
    2a10:	4505                	li	a0,1
    2a12:	00002097          	auipc	ra,0x2
    2a16:	ef6080e7          	jalr	-266(ra) # 4908 <exit>
    printf("%s: remove dd/dd failed\n", s);
    2a1a:	85ca                	mv	a1,s2
    2a1c:	00003517          	auipc	a0,0x3
    2a20:	7cc50513          	addi	a0,a0,1996 # 61e8 <malloc+0x1484>
    2a24:	00002097          	auipc	ra,0x2
    2a28:	282080e7          	jalr	642(ra) # 4ca6 <printf>
    exit(1);
    2a2c:	4505                	li	a0,1
    2a2e:	00002097          	auipc	ra,0x2
    2a32:	eda080e7          	jalr	-294(ra) # 4908 <exit>
    printf("%s: remove dd failed\n", s);
    2a36:	85ca                	mv	a1,s2
    2a38:	00003517          	auipc	a0,0x3
    2a3c:	7d050513          	addi	a0,a0,2000 # 6208 <malloc+0x14a4>
    2a40:	00002097          	auipc	ra,0x2
    2a44:	266080e7          	jalr	614(ra) # 4ca6 <printf>
    exit(1);
    2a48:	4505                	li	a0,1
    2a4a:	00002097          	auipc	ra,0x2
    2a4e:	ebe080e7          	jalr	-322(ra) # 4908 <exit>

0000000000002a52 <rmdot>:
{
    2a52:	1101                	addi	sp,sp,-32
    2a54:	ec06                	sd	ra,24(sp)
    2a56:	e822                	sd	s0,16(sp)
    2a58:	e426                	sd	s1,8(sp)
    2a5a:	1000                	addi	s0,sp,32
    2a5c:	84aa                	mv	s1,a0
  if(mkdir("dots") != 0){
    2a5e:	00003517          	auipc	a0,0x3
    2a62:	7c250513          	addi	a0,a0,1986 # 6220 <malloc+0x14bc>
    2a66:	00002097          	auipc	ra,0x2
    2a6a:	ef2080e7          	jalr	-270(ra) # 4958 <mkdir>
    2a6e:	e549                	bnez	a0,2af8 <rmdot+0xa6>
  if(chdir("dots") != 0){
    2a70:	00003517          	auipc	a0,0x3
    2a74:	7b050513          	addi	a0,a0,1968 # 6220 <malloc+0x14bc>
    2a78:	00002097          	auipc	ra,0x2
    2a7c:	ee8080e7          	jalr	-280(ra) # 4960 <chdir>
    2a80:	e951                	bnez	a0,2b14 <rmdot+0xc2>
  if(remove(".") == 0){
    2a82:	00003517          	auipc	a0,0x3
    2a86:	7d650513          	addi	a0,a0,2006 # 6258 <malloc+0x14f4>
    2a8a:	00002097          	auipc	ra,0x2
    2a8e:	f26080e7          	jalr	-218(ra) # 49b0 <remove>
    2a92:	cd59                	beqz	a0,2b30 <rmdot+0xde>
  if(remove("..") == 0){
    2a94:	00003517          	auipc	a0,0x3
    2a98:	7e450513          	addi	a0,a0,2020 # 6278 <malloc+0x1514>
    2a9c:	00002097          	auipc	ra,0x2
    2aa0:	f14080e7          	jalr	-236(ra) # 49b0 <remove>
    2aa4:	c545                	beqz	a0,2b4c <rmdot+0xfa>
  if(chdir("/") != 0){
    2aa6:	00003517          	auipc	a0,0x3
    2aaa:	3ba50513          	addi	a0,a0,954 # 5e60 <malloc+0x10fc>
    2aae:	00002097          	auipc	ra,0x2
    2ab2:	eb2080e7          	jalr	-334(ra) # 4960 <chdir>
    2ab6:	e94d                	bnez	a0,2b68 <rmdot+0x116>
  if(remove("dots/.") == 0){
    2ab8:	00003517          	auipc	a0,0x3
    2abc:	7e050513          	addi	a0,a0,2016 # 6298 <malloc+0x1534>
    2ac0:	00002097          	auipc	ra,0x2
    2ac4:	ef0080e7          	jalr	-272(ra) # 49b0 <remove>
    2ac8:	cd55                	beqz	a0,2b84 <rmdot+0x132>
  if(remove("dots/..") == 0){
    2aca:	00003517          	auipc	a0,0x3
    2ace:	7f650513          	addi	a0,a0,2038 # 62c0 <malloc+0x155c>
    2ad2:	00002097          	auipc	ra,0x2
    2ad6:	ede080e7          	jalr	-290(ra) # 49b0 <remove>
    2ada:	c179                	beqz	a0,2ba0 <rmdot+0x14e>
  if(remove("dots") != 0){
    2adc:	00003517          	auipc	a0,0x3
    2ae0:	74450513          	addi	a0,a0,1860 # 6220 <malloc+0x14bc>
    2ae4:	00002097          	auipc	ra,0x2
    2ae8:	ecc080e7          	jalr	-308(ra) # 49b0 <remove>
    2aec:	e961                	bnez	a0,2bbc <rmdot+0x16a>
}
    2aee:	60e2                	ld	ra,24(sp)
    2af0:	6442                	ld	s0,16(sp)
    2af2:	64a2                	ld	s1,8(sp)
    2af4:	6105                	addi	sp,sp,32
    2af6:	8082                	ret
    printf("%s: mkdir dots failed\n", s);
    2af8:	85a6                	mv	a1,s1
    2afa:	00003517          	auipc	a0,0x3
    2afe:	72e50513          	addi	a0,a0,1838 # 6228 <malloc+0x14c4>
    2b02:	00002097          	auipc	ra,0x2
    2b06:	1a4080e7          	jalr	420(ra) # 4ca6 <printf>
    exit(1);
    2b0a:	4505                	li	a0,1
    2b0c:	00002097          	auipc	ra,0x2
    2b10:	dfc080e7          	jalr	-516(ra) # 4908 <exit>
    printf("%s: chdir dots failed\n", s);
    2b14:	85a6                	mv	a1,s1
    2b16:	00003517          	auipc	a0,0x3
    2b1a:	72a50513          	addi	a0,a0,1834 # 6240 <malloc+0x14dc>
    2b1e:	00002097          	auipc	ra,0x2
    2b22:	188080e7          	jalr	392(ra) # 4ca6 <printf>
    exit(1);
    2b26:	4505                	li	a0,1
    2b28:	00002097          	auipc	ra,0x2
    2b2c:	de0080e7          	jalr	-544(ra) # 4908 <exit>
    printf("%s: rm . worked!\n", s);
    2b30:	85a6                	mv	a1,s1
    2b32:	00003517          	auipc	a0,0x3
    2b36:	72e50513          	addi	a0,a0,1838 # 6260 <malloc+0x14fc>
    2b3a:	00002097          	auipc	ra,0x2
    2b3e:	16c080e7          	jalr	364(ra) # 4ca6 <printf>
    exit(1);
    2b42:	4505                	li	a0,1
    2b44:	00002097          	auipc	ra,0x2
    2b48:	dc4080e7          	jalr	-572(ra) # 4908 <exit>
    printf("%s: rm .. worked!\n", s);
    2b4c:	85a6                	mv	a1,s1
    2b4e:	00003517          	auipc	a0,0x3
    2b52:	73250513          	addi	a0,a0,1842 # 6280 <malloc+0x151c>
    2b56:	00002097          	auipc	ra,0x2
    2b5a:	150080e7          	jalr	336(ra) # 4ca6 <printf>
    exit(1);
    2b5e:	4505                	li	a0,1
    2b60:	00002097          	auipc	ra,0x2
    2b64:	da8080e7          	jalr	-600(ra) # 4908 <exit>
    printf("%s: chdir / failed\n", s);
    2b68:	85a6                	mv	a1,s1
    2b6a:	00003517          	auipc	a0,0x3
    2b6e:	2fe50513          	addi	a0,a0,766 # 5e68 <malloc+0x1104>
    2b72:	00002097          	auipc	ra,0x2
    2b76:	134080e7          	jalr	308(ra) # 4ca6 <printf>
    exit(1);
    2b7a:	4505                	li	a0,1
    2b7c:	00002097          	auipc	ra,0x2
    2b80:	d8c080e7          	jalr	-628(ra) # 4908 <exit>
    printf("%s: remove dots/. worked!\n", s);
    2b84:	85a6                	mv	a1,s1
    2b86:	00003517          	auipc	a0,0x3
    2b8a:	71a50513          	addi	a0,a0,1818 # 62a0 <malloc+0x153c>
    2b8e:	00002097          	auipc	ra,0x2
    2b92:	118080e7          	jalr	280(ra) # 4ca6 <printf>
    exit(1);
    2b96:	4505                	li	a0,1
    2b98:	00002097          	auipc	ra,0x2
    2b9c:	d70080e7          	jalr	-656(ra) # 4908 <exit>
    printf("%s: remove dots/.. worked!\n", s);
    2ba0:	85a6                	mv	a1,s1
    2ba2:	00003517          	auipc	a0,0x3
    2ba6:	72650513          	addi	a0,a0,1830 # 62c8 <malloc+0x1564>
    2baa:	00002097          	auipc	ra,0x2
    2bae:	0fc080e7          	jalr	252(ra) # 4ca6 <printf>
    exit(1);
    2bb2:	4505                	li	a0,1
    2bb4:	00002097          	auipc	ra,0x2
    2bb8:	d54080e7          	jalr	-684(ra) # 4908 <exit>
    printf("%s: remove dots failed!\n", s);
    2bbc:	85a6                	mv	a1,s1
    2bbe:	00003517          	auipc	a0,0x3
    2bc2:	72a50513          	addi	a0,a0,1834 # 62e8 <malloc+0x1584>
    2bc6:	00002097          	auipc	ra,0x2
    2bca:	0e0080e7          	jalr	224(ra) # 4ca6 <printf>
    exit(1);
    2bce:	4505                	li	a0,1
    2bd0:	00002097          	auipc	ra,0x2
    2bd4:	d38080e7          	jalr	-712(ra) # 4908 <exit>

0000000000002bd8 <dirfile>:
{
    2bd8:	1101                	addi	sp,sp,-32
    2bda:	ec06                	sd	ra,24(sp)
    2bdc:	e822                	sd	s0,16(sp)
    2bde:	e426                	sd	s1,8(sp)
    2be0:	e04a                	sd	s2,0(sp)
    2be2:	1000                	addi	s0,sp,32
    2be4:	892a                	mv	s2,a0
  fd = open("dirfile", O_CREATE);
    2be6:	20000593          	li	a1,512
    2bea:	00002517          	auipc	a0,0x2
    2bee:	50e50513          	addi	a0,a0,1294 # 50f8 <malloc+0x394>
    2bf2:	00002097          	auipc	ra,0x2
    2bf6:	d56080e7          	jalr	-682(ra) # 4948 <open>
  if(fd < 0){
    2bfa:	0c054d63          	bltz	a0,2cd4 <dirfile+0xfc>
  close(fd);
    2bfe:	00002097          	auipc	ra,0x2
    2c02:	d32080e7          	jalr	-718(ra) # 4930 <close>
  if(chdir("dirfile") == 0){
    2c06:	00002517          	auipc	a0,0x2
    2c0a:	4f250513          	addi	a0,a0,1266 # 50f8 <malloc+0x394>
    2c0e:	00002097          	auipc	ra,0x2
    2c12:	d52080e7          	jalr	-686(ra) # 4960 <chdir>
    2c16:	cd69                	beqz	a0,2cf0 <dirfile+0x118>
  fd = open("dirfile/xx", 0);
    2c18:	4581                	li	a1,0
    2c1a:	00003517          	auipc	a0,0x3
    2c1e:	72e50513          	addi	a0,a0,1838 # 6348 <malloc+0x15e4>
    2c22:	00002097          	auipc	ra,0x2
    2c26:	d26080e7          	jalr	-730(ra) # 4948 <open>
  if(fd >= 0){
    2c2a:	0e055163          	bgez	a0,2d0c <dirfile+0x134>
  fd = open("dirfile/xx", O_CREATE);
    2c2e:	20000593          	li	a1,512
    2c32:	00003517          	auipc	a0,0x3
    2c36:	71650513          	addi	a0,a0,1814 # 6348 <malloc+0x15e4>
    2c3a:	00002097          	auipc	ra,0x2
    2c3e:	d0e080e7          	jalr	-754(ra) # 4948 <open>
  if(fd >= 0){
    2c42:	0e055363          	bgez	a0,2d28 <dirfile+0x150>
  if(mkdir("dirfile/xx") == 0){
    2c46:	00003517          	auipc	a0,0x3
    2c4a:	70250513          	addi	a0,a0,1794 # 6348 <malloc+0x15e4>
    2c4e:	00002097          	auipc	ra,0x2
    2c52:	d0a080e7          	jalr	-758(ra) # 4958 <mkdir>
    2c56:	c57d                	beqz	a0,2d44 <dirfile+0x16c>
  if(remove("dirfile/xx") == 0){
    2c58:	00003517          	auipc	a0,0x3
    2c5c:	6f050513          	addi	a0,a0,1776 # 6348 <malloc+0x15e4>
    2c60:	00002097          	auipc	ra,0x2
    2c64:	d50080e7          	jalr	-688(ra) # 49b0 <remove>
    2c68:	cd65                	beqz	a0,2d60 <dirfile+0x188>
  if(remove("dirfile") != 0){
    2c6a:	00002517          	auipc	a0,0x2
    2c6e:	48e50513          	addi	a0,a0,1166 # 50f8 <malloc+0x394>
    2c72:	00002097          	auipc	ra,0x2
    2c76:	d3e080e7          	jalr	-706(ra) # 49b0 <remove>
    2c7a:	10051163          	bnez	a0,2d7c <dirfile+0x1a4>
  fd = open(".", O_RDWR);
    2c7e:	4589                	li	a1,2
    2c80:	00003517          	auipc	a0,0x3
    2c84:	5d850513          	addi	a0,a0,1496 # 6258 <malloc+0x14f4>
    2c88:	00002097          	auipc	ra,0x2
    2c8c:	cc0080e7          	jalr	-832(ra) # 4948 <open>
  if(fd >= 0){
    2c90:	10055463          	bgez	a0,2d98 <dirfile+0x1c0>
  fd = open(".", 0);
    2c94:	4581                	li	a1,0
    2c96:	00003517          	auipc	a0,0x3
    2c9a:	5c250513          	addi	a0,a0,1474 # 6258 <malloc+0x14f4>
    2c9e:	00002097          	auipc	ra,0x2
    2ca2:	caa080e7          	jalr	-854(ra) # 4948 <open>
    2ca6:	84aa                	mv	s1,a0
  if(write(fd, "x", 1) > 0){
    2ca8:	4605                	li	a2,1
    2caa:	00002597          	auipc	a1,0x2
    2cae:	54e58593          	addi	a1,a1,1358 # 51f8 <malloc+0x494>
    2cb2:	00002097          	auipc	ra,0x2
    2cb6:	c76080e7          	jalr	-906(ra) # 4928 <write>
    2cba:	0ea04d63          	bgtz	a0,2db4 <dirfile+0x1dc>
  close(fd);
    2cbe:	8526                	mv	a0,s1
    2cc0:	00002097          	auipc	ra,0x2
    2cc4:	c70080e7          	jalr	-912(ra) # 4930 <close>
}
    2cc8:	60e2                	ld	ra,24(sp)
    2cca:	6442                	ld	s0,16(sp)
    2ccc:	64a2                	ld	s1,8(sp)
    2cce:	6902                	ld	s2,0(sp)
    2cd0:	6105                	addi	sp,sp,32
    2cd2:	8082                	ret
    printf("%s: create dirfile failed\n", s);
    2cd4:	85ca                	mv	a1,s2
    2cd6:	00003517          	auipc	a0,0x3
    2cda:	63250513          	addi	a0,a0,1586 # 6308 <malloc+0x15a4>
    2cde:	00002097          	auipc	ra,0x2
    2ce2:	fc8080e7          	jalr	-56(ra) # 4ca6 <printf>
    exit(1);
    2ce6:	4505                	li	a0,1
    2ce8:	00002097          	auipc	ra,0x2
    2cec:	c20080e7          	jalr	-992(ra) # 4908 <exit>
    printf("%s: chdir dirfile succeeded!\n", s);
    2cf0:	85ca                	mv	a1,s2
    2cf2:	00003517          	auipc	a0,0x3
    2cf6:	63650513          	addi	a0,a0,1590 # 6328 <malloc+0x15c4>
    2cfa:	00002097          	auipc	ra,0x2
    2cfe:	fac080e7          	jalr	-84(ra) # 4ca6 <printf>
    exit(1);
    2d02:	4505                	li	a0,1
    2d04:	00002097          	auipc	ra,0x2
    2d08:	c04080e7          	jalr	-1020(ra) # 4908 <exit>
    printf("%s: create dirfile/xx succeeded!\n", s);
    2d0c:	85ca                	mv	a1,s2
    2d0e:	00003517          	auipc	a0,0x3
    2d12:	64a50513          	addi	a0,a0,1610 # 6358 <malloc+0x15f4>
    2d16:	00002097          	auipc	ra,0x2
    2d1a:	f90080e7          	jalr	-112(ra) # 4ca6 <printf>
    exit(1);
    2d1e:	4505                	li	a0,1
    2d20:	00002097          	auipc	ra,0x2
    2d24:	be8080e7          	jalr	-1048(ra) # 4908 <exit>
    printf("%s: create dirfile/xx succeeded!\n", s);
    2d28:	85ca                	mv	a1,s2
    2d2a:	00003517          	auipc	a0,0x3
    2d2e:	62e50513          	addi	a0,a0,1582 # 6358 <malloc+0x15f4>
    2d32:	00002097          	auipc	ra,0x2
    2d36:	f74080e7          	jalr	-140(ra) # 4ca6 <printf>
    exit(1);
    2d3a:	4505                	li	a0,1
    2d3c:	00002097          	auipc	ra,0x2
    2d40:	bcc080e7          	jalr	-1076(ra) # 4908 <exit>
    printf("%s: mkdir dirfile/xx succeeded!\n", s);
    2d44:	85ca                	mv	a1,s2
    2d46:	00003517          	auipc	a0,0x3
    2d4a:	63a50513          	addi	a0,a0,1594 # 6380 <malloc+0x161c>
    2d4e:	00002097          	auipc	ra,0x2
    2d52:	f58080e7          	jalr	-168(ra) # 4ca6 <printf>
    exit(1);
    2d56:	4505                	li	a0,1
    2d58:	00002097          	auipc	ra,0x2
    2d5c:	bb0080e7          	jalr	-1104(ra) # 4908 <exit>
    printf("%s: remove dirfile/xx succeeded!\n", s);
    2d60:	85ca                	mv	a1,s2
    2d62:	00003517          	auipc	a0,0x3
    2d66:	64650513          	addi	a0,a0,1606 # 63a8 <malloc+0x1644>
    2d6a:	00002097          	auipc	ra,0x2
    2d6e:	f3c080e7          	jalr	-196(ra) # 4ca6 <printf>
    exit(1);
    2d72:	4505                	li	a0,1
    2d74:	00002097          	auipc	ra,0x2
    2d78:	b94080e7          	jalr	-1132(ra) # 4908 <exit>
    printf("%s: remove dirfile failed!\n", s);
    2d7c:	85ca                	mv	a1,s2
    2d7e:	00003517          	auipc	a0,0x3
    2d82:	65250513          	addi	a0,a0,1618 # 63d0 <malloc+0x166c>
    2d86:	00002097          	auipc	ra,0x2
    2d8a:	f20080e7          	jalr	-224(ra) # 4ca6 <printf>
    exit(1);
    2d8e:	4505                	li	a0,1
    2d90:	00002097          	auipc	ra,0x2
    2d94:	b78080e7          	jalr	-1160(ra) # 4908 <exit>
    printf("%s: open . for writing succeeded!\n", s);
    2d98:	85ca                	mv	a1,s2
    2d9a:	00003517          	auipc	a0,0x3
    2d9e:	65650513          	addi	a0,a0,1622 # 63f0 <malloc+0x168c>
    2da2:	00002097          	auipc	ra,0x2
    2da6:	f04080e7          	jalr	-252(ra) # 4ca6 <printf>
    exit(1);
    2daa:	4505                	li	a0,1
    2dac:	00002097          	auipc	ra,0x2
    2db0:	b5c080e7          	jalr	-1188(ra) # 4908 <exit>
    printf("%s: write . succeeded!\n", s);
    2db4:	85ca                	mv	a1,s2
    2db6:	00003517          	auipc	a0,0x3
    2dba:	66250513          	addi	a0,a0,1634 # 6418 <malloc+0x16b4>
    2dbe:	00002097          	auipc	ra,0x2
    2dc2:	ee8080e7          	jalr	-280(ra) # 4ca6 <printf>
    exit(1);
    2dc6:	4505                	li	a0,1
    2dc8:	00002097          	auipc	ra,0x2
    2dcc:	b40080e7          	jalr	-1216(ra) # 4908 <exit>

0000000000002dd0 <iref>:
{
    2dd0:	7139                	addi	sp,sp,-64
    2dd2:	fc06                	sd	ra,56(sp)
    2dd4:	f822                	sd	s0,48(sp)
    2dd6:	f426                	sd	s1,40(sp)
    2dd8:	f04a                	sd	s2,32(sp)
    2dda:	ec4e                	sd	s3,24(sp)
    2ddc:	e852                	sd	s4,16(sp)
    2dde:	e456                	sd	s5,8(sp)
    2de0:	0080                	addi	s0,sp,64
    2de2:	8aaa                	mv	s5,a0
    2de4:	02e00493          	li	s1,46
    if(mkdir("irefd") != 0){
    2de8:	00003917          	auipc	s2,0x3
    2dec:	64890913          	addi	s2,s2,1608 # 6430 <malloc+0x16cc>
    mkdir("");
    2df0:	00003a17          	auipc	s4,0x3
    2df4:	2e0a0a13          	addi	s4,s4,736 # 60d0 <malloc+0x136c>
    fd = open("xx", O_CREATE);
    2df8:	00003997          	auipc	s3,0x3
    2dfc:	55898993          	addi	s3,s3,1368 # 6350 <malloc+0x15ec>
    2e00:	a889                	j	2e52 <iref+0x82>
      printf("%s: mkdir irefd failed\n", s);
    2e02:	85d6                	mv	a1,s5
    2e04:	00003517          	auipc	a0,0x3
    2e08:	63450513          	addi	a0,a0,1588 # 6438 <malloc+0x16d4>
    2e0c:	00002097          	auipc	ra,0x2
    2e10:	e9a080e7          	jalr	-358(ra) # 4ca6 <printf>
      exit(1);
    2e14:	4505                	li	a0,1
    2e16:	00002097          	auipc	ra,0x2
    2e1a:	af2080e7          	jalr	-1294(ra) # 4908 <exit>
      printf("%s: chdir irefd failed\n", s);
    2e1e:	85d6                	mv	a1,s5
    2e20:	00003517          	auipc	a0,0x3
    2e24:	63050513          	addi	a0,a0,1584 # 6450 <malloc+0x16ec>
    2e28:	00002097          	auipc	ra,0x2
    2e2c:	e7e080e7          	jalr	-386(ra) # 4ca6 <printf>
      exit(1);
    2e30:	4505                	li	a0,1
    2e32:	00002097          	auipc	ra,0x2
    2e36:	ad6080e7          	jalr	-1322(ra) # 4908 <exit>
      close(fd);
    2e3a:	00002097          	auipc	ra,0x2
    2e3e:	af6080e7          	jalr	-1290(ra) # 4930 <close>
    2e42:	a091                	j	2e86 <iref+0xb6>
    remove("xx");
    2e44:	854e                	mv	a0,s3
    2e46:	00002097          	auipc	ra,0x2
    2e4a:	b6a080e7          	jalr	-1174(ra) # 49b0 <remove>
  for(i = 0; i < NINODE - 4; i++){
    2e4e:	34fd                	addiw	s1,s1,-1
    2e50:	c8a9                	beqz	s1,2ea2 <iref+0xd2>
    if(mkdir("irefd") != 0){
    2e52:	854a                	mv	a0,s2
    2e54:	00002097          	auipc	ra,0x2
    2e58:	b04080e7          	jalr	-1276(ra) # 4958 <mkdir>
    2e5c:	f15d                	bnez	a0,2e02 <iref+0x32>
    if(chdir("irefd") != 0){
    2e5e:	854a                	mv	a0,s2
    2e60:	00002097          	auipc	ra,0x2
    2e64:	b00080e7          	jalr	-1280(ra) # 4960 <chdir>
    2e68:	f95d                	bnez	a0,2e1e <iref+0x4e>
    mkdir("");
    2e6a:	8552                	mv	a0,s4
    2e6c:	00002097          	auipc	ra,0x2
    2e70:	aec080e7          	jalr	-1300(ra) # 4958 <mkdir>
    fd = open("", O_CREATE);
    2e74:	20000593          	li	a1,512
    2e78:	8552                	mv	a0,s4
    2e7a:	00002097          	auipc	ra,0x2
    2e7e:	ace080e7          	jalr	-1330(ra) # 4948 <open>
    if(fd >= 0)
    2e82:	fa055ce3          	bgez	a0,2e3a <iref+0x6a>
    fd = open("xx", O_CREATE);
    2e86:	20000593          	li	a1,512
    2e8a:	854e                	mv	a0,s3
    2e8c:	00002097          	auipc	ra,0x2
    2e90:	abc080e7          	jalr	-1348(ra) # 4948 <open>
    if(fd >= 0)
    2e94:	fa0548e3          	bltz	a0,2e44 <iref+0x74>
      close(fd);
    2e98:	00002097          	auipc	ra,0x2
    2e9c:	a98080e7          	jalr	-1384(ra) # 4930 <close>
    2ea0:	b755                	j	2e44 <iref+0x74>
    2ea2:	03300493          	li	s1,51
    chdir("..");
    2ea6:	00003997          	auipc	s3,0x3
    2eaa:	3d298993          	addi	s3,s3,978 # 6278 <malloc+0x1514>
    remove("irefd");
    2eae:	00003917          	auipc	s2,0x3
    2eb2:	58290913          	addi	s2,s2,1410 # 6430 <malloc+0x16cc>
    chdir("..");
    2eb6:	854e                	mv	a0,s3
    2eb8:	00002097          	auipc	ra,0x2
    2ebc:	aa8080e7          	jalr	-1368(ra) # 4960 <chdir>
    remove("irefd");
    2ec0:	854a                	mv	a0,s2
    2ec2:	00002097          	auipc	ra,0x2
    2ec6:	aee080e7          	jalr	-1298(ra) # 49b0 <remove>
  for(i = 0; i < NINODE + 1; i++){
    2eca:	34fd                	addiw	s1,s1,-1
    2ecc:	f4ed                	bnez	s1,2eb6 <iref+0xe6>
  chdir("/");
    2ece:	00003517          	auipc	a0,0x3
    2ed2:	f9250513          	addi	a0,a0,-110 # 5e60 <malloc+0x10fc>
    2ed6:	00002097          	auipc	ra,0x2
    2eda:	a8a080e7          	jalr	-1398(ra) # 4960 <chdir>
}
    2ede:	70e2                	ld	ra,56(sp)
    2ee0:	7442                	ld	s0,48(sp)
    2ee2:	74a2                	ld	s1,40(sp)
    2ee4:	7902                	ld	s2,32(sp)
    2ee6:	69e2                	ld	s3,24(sp)
    2ee8:	6a42                	ld	s4,16(sp)
    2eea:	6aa2                	ld	s5,8(sp)
    2eec:	6121                	addi	sp,sp,64
    2eee:	8082                	ret

0000000000002ef0 <openiputtest>:
{
    2ef0:	7179                	addi	sp,sp,-48
    2ef2:	f406                	sd	ra,40(sp)
    2ef4:	f022                	sd	s0,32(sp)
    2ef6:	ec26                	sd	s1,24(sp)
    2ef8:	1800                	addi	s0,sp,48
    2efa:	84aa                	mv	s1,a0
  if(mkdir("oidir") < 0){
    2efc:	00003517          	auipc	a0,0x3
    2f00:	56c50513          	addi	a0,a0,1388 # 6468 <malloc+0x1704>
    2f04:	00002097          	auipc	ra,0x2
    2f08:	a54080e7          	jalr	-1452(ra) # 4958 <mkdir>
    2f0c:	04054263          	bltz	a0,2f50 <openiputtest+0x60>
  pid = fork();
    2f10:	00002097          	auipc	ra,0x2
    2f14:	9f0080e7          	jalr	-1552(ra) # 4900 <fork>
  if(pid < 0){
    2f18:	04054a63          	bltz	a0,2f6c <openiputtest+0x7c>
  if(pid == 0){
    2f1c:	e93d                	bnez	a0,2f92 <openiputtest+0xa2>
    int fd = open("oidir", O_RDWR);
    2f1e:	4589                	li	a1,2
    2f20:	00003517          	auipc	a0,0x3
    2f24:	54850513          	addi	a0,a0,1352 # 6468 <malloc+0x1704>
    2f28:	00002097          	auipc	ra,0x2
    2f2c:	a20080e7          	jalr	-1504(ra) # 4948 <open>
    if(fd >= 0){
    2f30:	04054c63          	bltz	a0,2f88 <openiputtest+0x98>
      printf("%s: open directory for write succeeded\n", s);
    2f34:	85a6                	mv	a1,s1
    2f36:	00003517          	auipc	a0,0x3
    2f3a:	55250513          	addi	a0,a0,1362 # 6488 <malloc+0x1724>
    2f3e:	00002097          	auipc	ra,0x2
    2f42:	d68080e7          	jalr	-664(ra) # 4ca6 <printf>
      exit(1);
    2f46:	4505                	li	a0,1
    2f48:	00002097          	auipc	ra,0x2
    2f4c:	9c0080e7          	jalr	-1600(ra) # 4908 <exit>
    printf("%s: mkdir oidir failed\n", s);
    2f50:	85a6                	mv	a1,s1
    2f52:	00003517          	auipc	a0,0x3
    2f56:	51e50513          	addi	a0,a0,1310 # 6470 <malloc+0x170c>
    2f5a:	00002097          	auipc	ra,0x2
    2f5e:	d4c080e7          	jalr	-692(ra) # 4ca6 <printf>
    exit(1);
    2f62:	4505                	li	a0,1
    2f64:	00002097          	auipc	ra,0x2
    2f68:	9a4080e7          	jalr	-1628(ra) # 4908 <exit>
    printf("%s: fork failed\n", s);
    2f6c:	85a6                	mv	a1,s1
    2f6e:	00003517          	auipc	a0,0x3
    2f72:	88a50513          	addi	a0,a0,-1910 # 57f8 <malloc+0xa94>
    2f76:	00002097          	auipc	ra,0x2
    2f7a:	d30080e7          	jalr	-720(ra) # 4ca6 <printf>
    exit(1);
    2f7e:	4505                	li	a0,1
    2f80:	00002097          	auipc	ra,0x2
    2f84:	988080e7          	jalr	-1656(ra) # 4908 <exit>
    exit(0);
    2f88:	4501                	li	a0,0
    2f8a:	00002097          	auipc	ra,0x2
    2f8e:	97e080e7          	jalr	-1666(ra) # 4908 <exit>
  sleep(1);
    2f92:	4505                	li	a0,1
    2f94:	00002097          	auipc	ra,0x2
    2f98:	9ec080e7          	jalr	-1556(ra) # 4980 <sleep>
  if(remove("oidir") != 0){
    2f9c:	00003517          	auipc	a0,0x3
    2fa0:	4cc50513          	addi	a0,a0,1228 # 6468 <malloc+0x1704>
    2fa4:	00002097          	auipc	ra,0x2
    2fa8:	a0c080e7          	jalr	-1524(ra) # 49b0 <remove>
    2fac:	cd19                	beqz	a0,2fca <openiputtest+0xda>
    printf("%s: remove failed\n", s);
    2fae:	85a6                	mv	a1,s1
    2fb0:	00003517          	auipc	a0,0x3
    2fb4:	50050513          	addi	a0,a0,1280 # 64b0 <malloc+0x174c>
    2fb8:	00002097          	auipc	ra,0x2
    2fbc:	cee080e7          	jalr	-786(ra) # 4ca6 <printf>
    exit(1);
    2fc0:	4505                	li	a0,1
    2fc2:	00002097          	auipc	ra,0x2
    2fc6:	946080e7          	jalr	-1722(ra) # 4908 <exit>
  wait(&xstatus);
    2fca:	fdc40513          	addi	a0,s0,-36
    2fce:	00002097          	auipc	ra,0x2
    2fd2:	942080e7          	jalr	-1726(ra) # 4910 <wait>
  exit(xstatus);
    2fd6:	fdc42503          	lw	a0,-36(s0)
    2fda:	00002097          	auipc	ra,0x2
    2fde:	92e080e7          	jalr	-1746(ra) # 4908 <exit>

0000000000002fe2 <forkforkfork>:
{
    2fe2:	1101                	addi	sp,sp,-32
    2fe4:	ec06                	sd	ra,24(sp)
    2fe6:	e822                	sd	s0,16(sp)
    2fe8:	e426                	sd	s1,8(sp)
    2fea:	1000                	addi	s0,sp,32
    2fec:	84aa                	mv	s1,a0
  remove("stopforking");
    2fee:	00003517          	auipc	a0,0x3
    2ff2:	4da50513          	addi	a0,a0,1242 # 64c8 <malloc+0x1764>
    2ff6:	00002097          	auipc	ra,0x2
    2ffa:	9ba080e7          	jalr	-1606(ra) # 49b0 <remove>
  int pid = fork();
    2ffe:	00002097          	auipc	ra,0x2
    3002:	902080e7          	jalr	-1790(ra) # 4900 <fork>
  if(pid < 0){
    3006:	04054d63          	bltz	a0,3060 <forkforkfork+0x7e>
  if(pid == 0){
    300a:	c92d                	beqz	a0,307c <forkforkfork+0x9a>
  sleep(20); // two seconds
    300c:	4551                	li	a0,20
    300e:	00002097          	auipc	ra,0x2
    3012:	972080e7          	jalr	-1678(ra) # 4980 <sleep>
  close(open("stopforking", O_CREATE|O_RDWR));
    3016:	20200593          	li	a1,514
    301a:	00003517          	auipc	a0,0x3
    301e:	4ae50513          	addi	a0,a0,1198 # 64c8 <malloc+0x1764>
    3022:	00002097          	auipc	ra,0x2
    3026:	926080e7          	jalr	-1754(ra) # 4948 <open>
    302a:	00002097          	auipc	ra,0x2
    302e:	906080e7          	jalr	-1786(ra) # 4930 <close>
  wait(0);
    3032:	4501                	li	a0,0
    3034:	00002097          	auipc	ra,0x2
    3038:	8dc080e7          	jalr	-1828(ra) # 4910 <wait>
  sleep(10); // one second
    303c:	4529                	li	a0,10
    303e:	00002097          	auipc	ra,0x2
    3042:	942080e7          	jalr	-1726(ra) # 4980 <sleep>
  remove("stopforking");
    3046:	00003517          	auipc	a0,0x3
    304a:	48250513          	addi	a0,a0,1154 # 64c8 <malloc+0x1764>
    304e:	00002097          	auipc	ra,0x2
    3052:	962080e7          	jalr	-1694(ra) # 49b0 <remove>
}
    3056:	60e2                	ld	ra,24(sp)
    3058:	6442                	ld	s0,16(sp)
    305a:	64a2                	ld	s1,8(sp)
    305c:	6105                	addi	sp,sp,32
    305e:	8082                	ret
    printf("%s: fork failed", s);
    3060:	85a6                	mv	a1,s1
    3062:	00003517          	auipc	a0,0x3
    3066:	95650513          	addi	a0,a0,-1706 # 59b8 <malloc+0xc54>
    306a:	00002097          	auipc	ra,0x2
    306e:	c3c080e7          	jalr	-964(ra) # 4ca6 <printf>
    exit(1);
    3072:	4505                	li	a0,1
    3074:	00002097          	auipc	ra,0x2
    3078:	894080e7          	jalr	-1900(ra) # 4908 <exit>
      int fd = open("stopforking", 0);
    307c:	00003497          	auipc	s1,0x3
    3080:	44c48493          	addi	s1,s1,1100 # 64c8 <malloc+0x1764>
    3084:	4581                	li	a1,0
    3086:	8526                	mv	a0,s1
    3088:	00002097          	auipc	ra,0x2
    308c:	8c0080e7          	jalr	-1856(ra) # 4948 <open>
      if(fd >= 0){
    3090:	02055463          	bgez	a0,30b8 <forkforkfork+0xd6>
      if(fork() < 0){
    3094:	00002097          	auipc	ra,0x2
    3098:	86c080e7          	jalr	-1940(ra) # 4900 <fork>
    309c:	fe0554e3          	bgez	a0,3084 <forkforkfork+0xa2>
        close(open("stopforking", O_CREATE|O_RDWR));
    30a0:	20200593          	li	a1,514
    30a4:	8526                	mv	a0,s1
    30a6:	00002097          	auipc	ra,0x2
    30aa:	8a2080e7          	jalr	-1886(ra) # 4948 <open>
    30ae:	00002097          	auipc	ra,0x2
    30b2:	882080e7          	jalr	-1918(ra) # 4930 <close>
    30b6:	b7f9                	j	3084 <forkforkfork+0xa2>
        exit(0);
    30b8:	4501                	li	a0,0
    30ba:	00002097          	auipc	ra,0x2
    30be:	84e080e7          	jalr	-1970(ra) # 4908 <exit>

00000000000030c2 <preempt>:
{
    30c2:	7139                	addi	sp,sp,-64
    30c4:	fc06                	sd	ra,56(sp)
    30c6:	f822                	sd	s0,48(sp)
    30c8:	f426                	sd	s1,40(sp)
    30ca:	f04a                	sd	s2,32(sp)
    30cc:	ec4e                	sd	s3,24(sp)
    30ce:	e852                	sd	s4,16(sp)
    30d0:	0080                	addi	s0,sp,64
    30d2:	892a                	mv	s2,a0
  pid1 = fork();
    30d4:	00002097          	auipc	ra,0x2
    30d8:	82c080e7          	jalr	-2004(ra) # 4900 <fork>
  if(pid1 < 0) {
    30dc:	00054563          	bltz	a0,30e6 <preempt+0x24>
    30e0:	84aa                	mv	s1,a0
  if(pid1 == 0)
    30e2:	ed19                	bnez	a0,3100 <preempt+0x3e>
    for(;;)
    30e4:	a001                	j	30e4 <preempt+0x22>
    printf("%s: fork failed");
    30e6:	00003517          	auipc	a0,0x3
    30ea:	8d250513          	addi	a0,a0,-1838 # 59b8 <malloc+0xc54>
    30ee:	00002097          	auipc	ra,0x2
    30f2:	bb8080e7          	jalr	-1096(ra) # 4ca6 <printf>
    exit(1);
    30f6:	4505                	li	a0,1
    30f8:	00002097          	auipc	ra,0x2
    30fc:	810080e7          	jalr	-2032(ra) # 4908 <exit>
  pid2 = fork();
    3100:	00002097          	auipc	ra,0x2
    3104:	800080e7          	jalr	-2048(ra) # 4900 <fork>
    3108:	89aa                	mv	s3,a0
  if(pid2 < 0) {
    310a:	00054463          	bltz	a0,3112 <preempt+0x50>
  if(pid2 == 0)
    310e:	e105                	bnez	a0,312e <preempt+0x6c>
    for(;;)
    3110:	a001                	j	3110 <preempt+0x4e>
    printf("%s: fork failed\n", s);
    3112:	85ca                	mv	a1,s2
    3114:	00002517          	auipc	a0,0x2
    3118:	6e450513          	addi	a0,a0,1764 # 57f8 <malloc+0xa94>
    311c:	00002097          	auipc	ra,0x2
    3120:	b8a080e7          	jalr	-1142(ra) # 4ca6 <printf>
    exit(1);
    3124:	4505                	li	a0,1
    3126:	00001097          	auipc	ra,0x1
    312a:	7e2080e7          	jalr	2018(ra) # 4908 <exit>
  pipe(pfds);
    312e:	fc840513          	addi	a0,s0,-56
    3132:	00001097          	auipc	ra,0x1
    3136:	7e6080e7          	jalr	2022(ra) # 4918 <pipe>
  pid3 = fork();
    313a:	00001097          	auipc	ra,0x1
    313e:	7c6080e7          	jalr	1990(ra) # 4900 <fork>
    3142:	8a2a                	mv	s4,a0
  if(pid3 < 0) {
    3144:	02054e63          	bltz	a0,3180 <preempt+0xbe>
  if(pid3 == 0){
    3148:	e13d                	bnez	a0,31ae <preempt+0xec>
    close(pfds[0]);
    314a:	fc842503          	lw	a0,-56(s0)
    314e:	00001097          	auipc	ra,0x1
    3152:	7e2080e7          	jalr	2018(ra) # 4930 <close>
    if(write(pfds[1], "x", 1) != 1)
    3156:	4605                	li	a2,1
    3158:	00002597          	auipc	a1,0x2
    315c:	0a058593          	addi	a1,a1,160 # 51f8 <malloc+0x494>
    3160:	fcc42503          	lw	a0,-52(s0)
    3164:	00001097          	auipc	ra,0x1
    3168:	7c4080e7          	jalr	1988(ra) # 4928 <write>
    316c:	4785                	li	a5,1
    316e:	02f51763          	bne	a0,a5,319c <preempt+0xda>
    close(pfds[1]);
    3172:	fcc42503          	lw	a0,-52(s0)
    3176:	00001097          	auipc	ra,0x1
    317a:	7ba080e7          	jalr	1978(ra) # 4930 <close>
    for(;;)
    317e:	a001                	j	317e <preempt+0xbc>
     printf("%s: fork failed\n", s);
    3180:	85ca                	mv	a1,s2
    3182:	00002517          	auipc	a0,0x2
    3186:	67650513          	addi	a0,a0,1654 # 57f8 <malloc+0xa94>
    318a:	00002097          	auipc	ra,0x2
    318e:	b1c080e7          	jalr	-1252(ra) # 4ca6 <printf>
     exit(1);
    3192:	4505                	li	a0,1
    3194:	00001097          	auipc	ra,0x1
    3198:	774080e7          	jalr	1908(ra) # 4908 <exit>
      printf("%s: preempt write error");
    319c:	00003517          	auipc	a0,0x3
    31a0:	33c50513          	addi	a0,a0,828 # 64d8 <malloc+0x1774>
    31a4:	00002097          	auipc	ra,0x2
    31a8:	b02080e7          	jalr	-1278(ra) # 4ca6 <printf>
    31ac:	b7d9                	j	3172 <preempt+0xb0>
  close(pfds[1]);
    31ae:	fcc42503          	lw	a0,-52(s0)
    31b2:	00001097          	auipc	ra,0x1
    31b6:	77e080e7          	jalr	1918(ra) # 4930 <close>
  if(read(pfds[0], buf, sizeof(buf)) != 1){
    31ba:	6609                	lui	a2,0x2
    31bc:	80060613          	addi	a2,a2,-2048 # 1800 <forkfork+0x3e>
    31c0:	00007597          	auipc	a1,0x7
    31c4:	66058593          	addi	a1,a1,1632 # a820 <buf>
    31c8:	fc842503          	lw	a0,-56(s0)
    31cc:	00001097          	auipc	ra,0x1
    31d0:	754080e7          	jalr	1876(ra) # 4920 <read>
    31d4:	4785                	li	a5,1
    31d6:	02f50263          	beq	a0,a5,31fa <preempt+0x138>
    printf("%s: preempt read error");
    31da:	00003517          	auipc	a0,0x3
    31de:	31650513          	addi	a0,a0,790 # 64f0 <malloc+0x178c>
    31e2:	00002097          	auipc	ra,0x2
    31e6:	ac4080e7          	jalr	-1340(ra) # 4ca6 <printf>
}
    31ea:	70e2                	ld	ra,56(sp)
    31ec:	7442                	ld	s0,48(sp)
    31ee:	74a2                	ld	s1,40(sp)
    31f0:	7902                	ld	s2,32(sp)
    31f2:	69e2                	ld	s3,24(sp)
    31f4:	6a42                	ld	s4,16(sp)
    31f6:	6121                	addi	sp,sp,64
    31f8:	8082                	ret
  close(pfds[0]);
    31fa:	fc842503          	lw	a0,-56(s0)
    31fe:	00001097          	auipc	ra,0x1
    3202:	732080e7          	jalr	1842(ra) # 4930 <close>
  printf("kill... ");
    3206:	00003517          	auipc	a0,0x3
    320a:	30250513          	addi	a0,a0,770 # 6508 <malloc+0x17a4>
    320e:	00002097          	auipc	ra,0x2
    3212:	a98080e7          	jalr	-1384(ra) # 4ca6 <printf>
  kill(pid1);
    3216:	8526                	mv	a0,s1
    3218:	00001097          	auipc	ra,0x1
    321c:	720080e7          	jalr	1824(ra) # 4938 <kill>
  kill(pid2);
    3220:	854e                	mv	a0,s3
    3222:	00001097          	auipc	ra,0x1
    3226:	716080e7          	jalr	1814(ra) # 4938 <kill>
  kill(pid3);
    322a:	8552                	mv	a0,s4
    322c:	00001097          	auipc	ra,0x1
    3230:	70c080e7          	jalr	1804(ra) # 4938 <kill>
  printf("wait... ");
    3234:	00003517          	auipc	a0,0x3
    3238:	2e450513          	addi	a0,a0,740 # 6518 <malloc+0x17b4>
    323c:	00002097          	auipc	ra,0x2
    3240:	a6a080e7          	jalr	-1430(ra) # 4ca6 <printf>
  wait(0);
    3244:	4501                	li	a0,0
    3246:	00001097          	auipc	ra,0x1
    324a:	6ca080e7          	jalr	1738(ra) # 4910 <wait>
  wait(0);
    324e:	4501                	li	a0,0
    3250:	00001097          	auipc	ra,0x1
    3254:	6c0080e7          	jalr	1728(ra) # 4910 <wait>
  wait(0);
    3258:	4501                	li	a0,0
    325a:	00001097          	auipc	ra,0x1
    325e:	6b6080e7          	jalr	1718(ra) # 4910 <wait>
    3262:	b761                	j	31ea <preempt+0x128>

0000000000003264 <sbrkfail>:
{
    3264:	7119                	addi	sp,sp,-128
    3266:	fc86                	sd	ra,120(sp)
    3268:	f8a2                	sd	s0,112(sp)
    326a:	f4a6                	sd	s1,104(sp)
    326c:	f0ca                	sd	s2,96(sp)
    326e:	ecce                	sd	s3,88(sp)
    3270:	e8d2                	sd	s4,80(sp)
    3272:	e4d6                	sd	s5,72(sp)
    3274:	e0da                	sd	s6,64(sp)
    3276:	0100                	addi	s0,sp,128
    3278:	8b2a                	mv	s6,a0
  if(pipe(fds) != 0){
    327a:	fb040513          	addi	a0,s0,-80
    327e:	00001097          	auipc	ra,0x1
    3282:	69a080e7          	jalr	1690(ra) # 4918 <pipe>
    3286:	e911                	bnez	a0,329a <sbrkfail+0x36>
    3288:	f8040493          	addi	s1,s0,-128
    328c:	fa840993          	addi	s3,s0,-88
    3290:	8926                	mv	s2,s1
    if(pids[i] != -1)
    3292:	5a7d                	li	s4,-1
      read(fds[0], &scratch, 1);
    3294:	faf40a93          	addi	s5,s0,-81
    3298:	a085                	j	32f8 <sbrkfail+0x94>
    printf("%s: pipe() failed\n", s);
    329a:	85da                	mv	a1,s6
    329c:	00002517          	auipc	a0,0x2
    32a0:	66450513          	addi	a0,a0,1636 # 5900 <malloc+0xb9c>
    32a4:	00002097          	auipc	ra,0x2
    32a8:	a02080e7          	jalr	-1534(ra) # 4ca6 <printf>
    exit(1);
    32ac:	4505                	li	a0,1
    32ae:	00001097          	auipc	ra,0x1
    32b2:	65a080e7          	jalr	1626(ra) # 4908 <exit>
      sbrk(BIG - (uint64)sbrk(0));
    32b6:	00001097          	auipc	ra,0x1
    32ba:	6c2080e7          	jalr	1730(ra) # 4978 <sbrk>
    32be:	064007b7          	lui	a5,0x6400
    32c2:	40a7853b          	subw	a0,a5,a0
    32c6:	00001097          	auipc	ra,0x1
    32ca:	6b2080e7          	jalr	1714(ra) # 4978 <sbrk>
      write(fds[1], "x", 1);
    32ce:	4605                	li	a2,1
    32d0:	00002597          	auipc	a1,0x2
    32d4:	f2858593          	addi	a1,a1,-216 # 51f8 <malloc+0x494>
    32d8:	fb442503          	lw	a0,-76(s0)
    32dc:	00001097          	auipc	ra,0x1
    32e0:	64c080e7          	jalr	1612(ra) # 4928 <write>
      for(;;) sleep(1000);
    32e4:	3e800513          	li	a0,1000
    32e8:	00001097          	auipc	ra,0x1
    32ec:	698080e7          	jalr	1688(ra) # 4980 <sleep>
    32f0:	bfd5                	j	32e4 <sbrkfail+0x80>
  for(i = 0; i < sizeof(pids)/sizeof(pids[0]); i++){
    32f2:	0911                	addi	s2,s2,4
    32f4:	03390463          	beq	s2,s3,331c <sbrkfail+0xb8>
    if((pids[i] = fork()) == 0){
    32f8:	00001097          	auipc	ra,0x1
    32fc:	608080e7          	jalr	1544(ra) # 4900 <fork>
    3300:	00a92023          	sw	a0,0(s2)
    3304:	d94d                	beqz	a0,32b6 <sbrkfail+0x52>
    if(pids[i] != -1)
    3306:	ff4506e3          	beq	a0,s4,32f2 <sbrkfail+0x8e>
      read(fds[0], &scratch, 1);
    330a:	4605                	li	a2,1
    330c:	85d6                	mv	a1,s5
    330e:	fb042503          	lw	a0,-80(s0)
    3312:	00001097          	auipc	ra,0x1
    3316:	60e080e7          	jalr	1550(ra) # 4920 <read>
    331a:	bfe1                	j	32f2 <sbrkfail+0x8e>
  c = sbrk(PGSIZE);
    331c:	6505                	lui	a0,0x1
    331e:	00001097          	auipc	ra,0x1
    3322:	65a080e7          	jalr	1626(ra) # 4978 <sbrk>
    3326:	8a2a                	mv	s4,a0
    if(pids[i] == -1)
    3328:	597d                	li	s2,-1
    332a:	a021                	j	3332 <sbrkfail+0xce>
  for(i = 0; i < sizeof(pids)/sizeof(pids[0]); i++){
    332c:	0491                	addi	s1,s1,4
    332e:	01348f63          	beq	s1,s3,334c <sbrkfail+0xe8>
    if(pids[i] == -1)
    3332:	4088                	lw	a0,0(s1)
    3334:	ff250ce3          	beq	a0,s2,332c <sbrkfail+0xc8>
    kill(pids[i]);
    3338:	00001097          	auipc	ra,0x1
    333c:	600080e7          	jalr	1536(ra) # 4938 <kill>
    wait(0);
    3340:	4501                	li	a0,0
    3342:	00001097          	auipc	ra,0x1
    3346:	5ce080e7          	jalr	1486(ra) # 4910 <wait>
    334a:	b7cd                	j	332c <sbrkfail+0xc8>
  if(c == (char*)0xffffffffffffffffL){
    334c:	57fd                	li	a5,-1
    334e:	04fa0263          	beq	s4,a5,3392 <sbrkfail+0x12e>
  pid = fork();
    3352:	00001097          	auipc	ra,0x1
    3356:	5ae080e7          	jalr	1454(ra) # 4900 <fork>
    335a:	84aa                	mv	s1,a0
  if(pid < 0){
    335c:	04054963          	bltz	a0,33ae <sbrkfail+0x14a>
  if(pid == 0){
    3360:	c52d                	beqz	a0,33ca <sbrkfail+0x166>
  wait(&xstatus);
    3362:	fbc40513          	addi	a0,s0,-68
    3366:	00001097          	auipc	ra,0x1
    336a:	5aa080e7          	jalr	1450(ra) # 4910 <wait>
  if(xstatus != -1 && xstatus != 2)
    336e:	fbc42783          	lw	a5,-68(s0)
    3372:	577d                	li	a4,-1
    3374:	00e78563          	beq	a5,a4,337e <sbrkfail+0x11a>
    3378:	4709                	li	a4,2
    337a:	08e79d63          	bne	a5,a4,3414 <sbrkfail+0x1b0>
}
    337e:	70e6                	ld	ra,120(sp)
    3380:	7446                	ld	s0,112(sp)
    3382:	74a6                	ld	s1,104(sp)
    3384:	7906                	ld	s2,96(sp)
    3386:	69e6                	ld	s3,88(sp)
    3388:	6a46                	ld	s4,80(sp)
    338a:	6aa6                	ld	s5,72(sp)
    338c:	6b06                	ld	s6,64(sp)
    338e:	6109                	addi	sp,sp,128
    3390:	8082                	ret
    printf("%s: failed sbrk leaked memory\n", s);
    3392:	85da                	mv	a1,s6
    3394:	00003517          	auipc	a0,0x3
    3398:	19450513          	addi	a0,a0,404 # 6528 <malloc+0x17c4>
    339c:	00002097          	auipc	ra,0x2
    33a0:	90a080e7          	jalr	-1782(ra) # 4ca6 <printf>
    exit(1);
    33a4:	4505                	li	a0,1
    33a6:	00001097          	auipc	ra,0x1
    33aa:	562080e7          	jalr	1378(ra) # 4908 <exit>
    printf("%s: fork failed\n", s);
    33ae:	85da                	mv	a1,s6
    33b0:	00002517          	auipc	a0,0x2
    33b4:	44850513          	addi	a0,a0,1096 # 57f8 <malloc+0xa94>
    33b8:	00002097          	auipc	ra,0x2
    33bc:	8ee080e7          	jalr	-1810(ra) # 4ca6 <printf>
    exit(1);
    33c0:	4505                	li	a0,1
    33c2:	00001097          	auipc	ra,0x1
    33c6:	546080e7          	jalr	1350(ra) # 4908 <exit>
    a = sbrk(0);
    33ca:	4501                	li	a0,0
    33cc:	00001097          	auipc	ra,0x1
    33d0:	5ac080e7          	jalr	1452(ra) # 4978 <sbrk>
    33d4:	892a                	mv	s2,a0
    sbrk(10*BIG);
    33d6:	3e800537          	lui	a0,0x3e800
    33da:	00001097          	auipc	ra,0x1
    33de:	59e080e7          	jalr	1438(ra) # 4978 <sbrk>
    for (i = 0; i < 10*BIG; i += PGSIZE) {
    33e2:	87ca                	mv	a5,s2
    33e4:	3e800737          	lui	a4,0x3e800
    33e8:	993a                	add	s2,s2,a4
    33ea:	6705                	lui	a4,0x1
      n += *(a+i);
    33ec:	0007c683          	lbu	a3,0(a5) # 6400000 <__BSS_END__+0x63f3fc8>
    33f0:	9cb5                	addw	s1,s1,a3
    for (i = 0; i < 10*BIG; i += PGSIZE) {
    33f2:	97ba                	add	a5,a5,a4
    33f4:	ff279ce3          	bne	a5,s2,33ec <sbrkfail+0x188>
    printf("%s: allocate a lot of memory succeeded %d\n", n);
    33f8:	85a6                	mv	a1,s1
    33fa:	00003517          	auipc	a0,0x3
    33fe:	14e50513          	addi	a0,a0,334 # 6548 <malloc+0x17e4>
    3402:	00002097          	auipc	ra,0x2
    3406:	8a4080e7          	jalr	-1884(ra) # 4ca6 <printf>
    exit(1);
    340a:	4505                	li	a0,1
    340c:	00001097          	auipc	ra,0x1
    3410:	4fc080e7          	jalr	1276(ra) # 4908 <exit>
    exit(1);
    3414:	4505                	li	a0,1
    3416:	00001097          	auipc	ra,0x1
    341a:	4f2080e7          	jalr	1266(ra) # 4908 <exit>

000000000000341e <reparent>:
{
    341e:	7179                	addi	sp,sp,-48
    3420:	f406                	sd	ra,40(sp)
    3422:	f022                	sd	s0,32(sp)
    3424:	ec26                	sd	s1,24(sp)
    3426:	e84a                	sd	s2,16(sp)
    3428:	e44e                	sd	s3,8(sp)
    342a:	e052                	sd	s4,0(sp)
    342c:	1800                	addi	s0,sp,48
    342e:	89aa                	mv	s3,a0
  int master_pid = getpid();
    3430:	00001097          	auipc	ra,0x1
    3434:	540080e7          	jalr	1344(ra) # 4970 <getpid>
    3438:	8a2a                	mv	s4,a0
    343a:	0c800913          	li	s2,200
    int pid = fork();
    343e:	00001097          	auipc	ra,0x1
    3442:	4c2080e7          	jalr	1218(ra) # 4900 <fork>
    3446:	84aa                	mv	s1,a0
    if(pid < 0){
    3448:	02054263          	bltz	a0,346c <reparent+0x4e>
    if(pid){
    344c:	cd21                	beqz	a0,34a4 <reparent+0x86>
      if(wait(0) != pid){
    344e:	4501                	li	a0,0
    3450:	00001097          	auipc	ra,0x1
    3454:	4c0080e7          	jalr	1216(ra) # 4910 <wait>
    3458:	02951863          	bne	a0,s1,3488 <reparent+0x6a>
  for(int i = 0; i < 200; i++){
    345c:	397d                	addiw	s2,s2,-1
    345e:	fe0910e3          	bnez	s2,343e <reparent+0x20>
  exit(0);
    3462:	4501                	li	a0,0
    3464:	00001097          	auipc	ra,0x1
    3468:	4a4080e7          	jalr	1188(ra) # 4908 <exit>
      printf("%s: fork failed\n", s);
    346c:	85ce                	mv	a1,s3
    346e:	00002517          	auipc	a0,0x2
    3472:	38a50513          	addi	a0,a0,906 # 57f8 <malloc+0xa94>
    3476:	00002097          	auipc	ra,0x2
    347a:	830080e7          	jalr	-2000(ra) # 4ca6 <printf>
      exit(1);
    347e:	4505                	li	a0,1
    3480:	00001097          	auipc	ra,0x1
    3484:	488080e7          	jalr	1160(ra) # 4908 <exit>
        printf("%s: wait wrong pid\n", s);
    3488:	85ce                	mv	a1,s3
    348a:	00002517          	auipc	a0,0x2
    348e:	4f650513          	addi	a0,a0,1270 # 5980 <malloc+0xc1c>
    3492:	00002097          	auipc	ra,0x2
    3496:	814080e7          	jalr	-2028(ra) # 4ca6 <printf>
        exit(1);
    349a:	4505                	li	a0,1
    349c:	00001097          	auipc	ra,0x1
    34a0:	46c080e7          	jalr	1132(ra) # 4908 <exit>
      int pid2 = fork();
    34a4:	00001097          	auipc	ra,0x1
    34a8:	45c080e7          	jalr	1116(ra) # 4900 <fork>
      if(pid2 < 0){
    34ac:	00054763          	bltz	a0,34ba <reparent+0x9c>
      exit(0);
    34b0:	4501                	li	a0,0
    34b2:	00001097          	auipc	ra,0x1
    34b6:	456080e7          	jalr	1110(ra) # 4908 <exit>
        kill(master_pid);
    34ba:	8552                	mv	a0,s4
    34bc:	00001097          	auipc	ra,0x1
    34c0:	47c080e7          	jalr	1148(ra) # 4938 <kill>
        exit(1);
    34c4:	4505                	li	a0,1
    34c6:	00001097          	auipc	ra,0x1
    34ca:	442080e7          	jalr	1090(ra) # 4908 <exit>

00000000000034ce <mem>:
{
    34ce:	7139                	addi	sp,sp,-64
    34d0:	fc06                	sd	ra,56(sp)
    34d2:	f822                	sd	s0,48(sp)
    34d4:	f426                	sd	s1,40(sp)
    34d6:	f04a                	sd	s2,32(sp)
    34d8:	ec4e                	sd	s3,24(sp)
    34da:	0080                	addi	s0,sp,64
    34dc:	89aa                	mv	s3,a0
  if((pid = fork()) == 0){
    34de:	00001097          	auipc	ra,0x1
    34e2:	422080e7          	jalr	1058(ra) # 4900 <fork>
    m1 = 0;
    34e6:	4481                	li	s1,0
    while((m2 = malloc(10001)) != 0){
    34e8:	6909                	lui	s2,0x2
    34ea:	71190913          	addi	s2,s2,1809 # 2711 <subdir+0x1b7>
  if((pid = fork()) == 0){
    34ee:	c115                	beqz	a0,3512 <mem+0x44>
    wait(&xstatus);
    34f0:	fcc40513          	addi	a0,s0,-52
    34f4:	00001097          	auipc	ra,0x1
    34f8:	41c080e7          	jalr	1052(ra) # 4910 <wait>
    if(xstatus == -1){
    34fc:	fcc42503          	lw	a0,-52(s0)
    3500:	57fd                	li	a5,-1
    3502:	06f50363          	beq	a0,a5,3568 <mem+0x9a>
    exit(xstatus);
    3506:	00001097          	auipc	ra,0x1
    350a:	402080e7          	jalr	1026(ra) # 4908 <exit>
      *(char**)m2 = m1;
    350e:	e104                	sd	s1,0(a0)
      m1 = m2;
    3510:	84aa                	mv	s1,a0
    while((m2 = malloc(10001)) != 0){
    3512:	854a                	mv	a0,s2
    3514:	00002097          	auipc	ra,0x2
    3518:	850080e7          	jalr	-1968(ra) # 4d64 <malloc>
    351c:	f96d                	bnez	a0,350e <mem+0x40>
    while(m1){
    351e:	c881                	beqz	s1,352e <mem+0x60>
      m2 = *(char**)m1;
    3520:	8526                	mv	a0,s1
    3522:	6084                	ld	s1,0(s1)
      free(m1);
    3524:	00001097          	auipc	ra,0x1
    3528:	7b8080e7          	jalr	1976(ra) # 4cdc <free>
    while(m1){
    352c:	f8f5                	bnez	s1,3520 <mem+0x52>
    m1 = malloc(1024*20);
    352e:	6515                	lui	a0,0x5
    3530:	00002097          	auipc	ra,0x2
    3534:	834080e7          	jalr	-1996(ra) # 4d64 <malloc>
    if(m1 == 0){
    3538:	c911                	beqz	a0,354c <mem+0x7e>
    free(m1);
    353a:	00001097          	auipc	ra,0x1
    353e:	7a2080e7          	jalr	1954(ra) # 4cdc <free>
    exit(0);
    3542:	4501                	li	a0,0
    3544:	00001097          	auipc	ra,0x1
    3548:	3c4080e7          	jalr	964(ra) # 4908 <exit>
      printf("couldn't allocate mem?!!\n", s);
    354c:	85ce                	mv	a1,s3
    354e:	00003517          	auipc	a0,0x3
    3552:	02a50513          	addi	a0,a0,42 # 6578 <malloc+0x1814>
    3556:	00001097          	auipc	ra,0x1
    355a:	750080e7          	jalr	1872(ra) # 4ca6 <printf>
      exit(1);
    355e:	4505                	li	a0,1
    3560:	00001097          	auipc	ra,0x1
    3564:	3a8080e7          	jalr	936(ra) # 4908 <exit>
      exit(0);
    3568:	4501                	li	a0,0
    356a:	00001097          	auipc	ra,0x1
    356e:	39e080e7          	jalr	926(ra) # 4908 <exit>

0000000000003572 <sharedfd>:
{
    3572:	7159                	addi	sp,sp,-112
    3574:	f486                	sd	ra,104(sp)
    3576:	f0a2                	sd	s0,96(sp)
    3578:	eca6                	sd	s1,88(sp)
    357a:	e8ca                	sd	s2,80(sp)
    357c:	e4ce                	sd	s3,72(sp)
    357e:	e0d2                	sd	s4,64(sp)
    3580:	fc56                	sd	s5,56(sp)
    3582:	f85a                	sd	s6,48(sp)
    3584:	f45e                	sd	s7,40(sp)
    3586:	f062                	sd	s8,32(sp)
    3588:	1880                	addi	s0,sp,112
    358a:	8aaa                	mv	s5,a0
  remove("sharedfd");
    358c:	00002517          	auipc	a0,0x2
    3590:	a2450513          	addi	a0,a0,-1500 # 4fb0 <malloc+0x24c>
    3594:	00001097          	auipc	ra,0x1
    3598:	41c080e7          	jalr	1052(ra) # 49b0 <remove>
  fd = open("sharedfd", O_CREATE|O_RDWR);
    359c:	20200593          	li	a1,514
    35a0:	00002517          	auipc	a0,0x2
    35a4:	a1050513          	addi	a0,a0,-1520 # 4fb0 <malloc+0x24c>
    35a8:	00001097          	auipc	ra,0x1
    35ac:	3a0080e7          	jalr	928(ra) # 4948 <open>
  if(fd < 0){
    35b0:	04054b63          	bltz	a0,3606 <sharedfd+0x94>
    35b4:	892a                	mv	s2,a0
  pid = fork();
    35b6:	00001097          	auipc	ra,0x1
    35ba:	34a080e7          	jalr	842(ra) # 4900 <fork>
    35be:	8a2a                	mv	s4,a0
  memset(buf, pid==0?'c':'p', sizeof(buf));
    35c0:	06300593          	li	a1,99
    35c4:	c119                	beqz	a0,35ca <sharedfd+0x58>
    35c6:	07000593          	li	a1,112
    35ca:	4629                	li	a2,10
    35cc:	fa040513          	addi	a0,s0,-96
    35d0:	00001097          	auipc	ra,0x1
    35d4:	120080e7          	jalr	288(ra) # 46f0 <memset>
    35d8:	3e800493          	li	s1,1000
    if(write(fd, buf, sizeof(buf)) != sizeof(buf)){
    35dc:	fa040993          	addi	s3,s0,-96
    35e0:	4629                	li	a2,10
    35e2:	85ce                	mv	a1,s3
    35e4:	854a                	mv	a0,s2
    35e6:	00001097          	auipc	ra,0x1
    35ea:	342080e7          	jalr	834(ra) # 4928 <write>
    35ee:	47a9                	li	a5,10
    35f0:	02f51963          	bne	a0,a5,3622 <sharedfd+0xb0>
  for(i = 0; i < N; i++){
    35f4:	34fd                	addiw	s1,s1,-1
    35f6:	f4ed                	bnez	s1,35e0 <sharedfd+0x6e>
  if(pid == 0) {
    35f8:	040a1363          	bnez	s4,363e <sharedfd+0xcc>
    exit(0);
    35fc:	4501                	li	a0,0
    35fe:	00001097          	auipc	ra,0x1
    3602:	30a080e7          	jalr	778(ra) # 4908 <exit>
    printf("%s: cannot open sharedfd for writing", s);
    3606:	85d6                	mv	a1,s5
    3608:	00003517          	auipc	a0,0x3
    360c:	f9050513          	addi	a0,a0,-112 # 6598 <malloc+0x1834>
    3610:	00001097          	auipc	ra,0x1
    3614:	696080e7          	jalr	1686(ra) # 4ca6 <printf>
    exit(1);
    3618:	4505                	li	a0,1
    361a:	00001097          	auipc	ra,0x1
    361e:	2ee080e7          	jalr	750(ra) # 4908 <exit>
      printf("%s: write sharedfd failed\n", s);
    3622:	85d6                	mv	a1,s5
    3624:	00003517          	auipc	a0,0x3
    3628:	f9c50513          	addi	a0,a0,-100 # 65c0 <malloc+0x185c>
    362c:	00001097          	auipc	ra,0x1
    3630:	67a080e7          	jalr	1658(ra) # 4ca6 <printf>
      exit(1);
    3634:	4505                	li	a0,1
    3636:	00001097          	auipc	ra,0x1
    363a:	2d2080e7          	jalr	722(ra) # 4908 <exit>
    wait(&xstatus);
    363e:	f9c40513          	addi	a0,s0,-100
    3642:	00001097          	auipc	ra,0x1
    3646:	2ce080e7          	jalr	718(ra) # 4910 <wait>
    if(xstatus != 0)
    364a:	f9c42983          	lw	s3,-100(s0)
    364e:	00098763          	beqz	s3,365c <sharedfd+0xea>
      exit(xstatus);
    3652:	854e                	mv	a0,s3
    3654:	00001097          	auipc	ra,0x1
    3658:	2b4080e7          	jalr	692(ra) # 4908 <exit>
  close(fd);
    365c:	854a                	mv	a0,s2
    365e:	00001097          	auipc	ra,0x1
    3662:	2d2080e7          	jalr	722(ra) # 4930 <close>
  fd = open("sharedfd", 0);
    3666:	4581                	li	a1,0
    3668:	00002517          	auipc	a0,0x2
    366c:	94850513          	addi	a0,a0,-1720 # 4fb0 <malloc+0x24c>
    3670:	00001097          	auipc	ra,0x1
    3674:	2d8080e7          	jalr	728(ra) # 4948 <open>
    3678:	8baa                	mv	s7,a0
  nc = np = 0;
    367a:	8a4e                	mv	s4,s3
  if(fd < 0){
    367c:	02054663          	bltz	a0,36a8 <sharedfd+0x136>
  while((n = read(fd, buf, sizeof(buf))) > 0){
    3680:	fa040c13          	addi	s8,s0,-96
    3684:	faa40913          	addi	s2,s0,-86
      if(buf[i] == 'c')
    3688:	06300493          	li	s1,99
      if(buf[i] == 'p')
    368c:	07000b13          	li	s6,112
  while((n = read(fd, buf, sizeof(buf))) > 0){
    3690:	4629                	li	a2,10
    3692:	85e2                	mv	a1,s8
    3694:	855e                	mv	a0,s7
    3696:	00001097          	auipc	ra,0x1
    369a:	28a080e7          	jalr	650(ra) # 4920 <read>
    369e:	02a05f63          	blez	a0,36dc <sharedfd+0x16a>
    36a2:	fa040793          	addi	a5,s0,-96
    36a6:	a01d                	j	36cc <sharedfd+0x15a>
    printf("%s: cannot open sharedfd for reading\n", s);
    36a8:	85d6                	mv	a1,s5
    36aa:	00003517          	auipc	a0,0x3
    36ae:	f3650513          	addi	a0,a0,-202 # 65e0 <malloc+0x187c>
    36b2:	00001097          	auipc	ra,0x1
    36b6:	5f4080e7          	jalr	1524(ra) # 4ca6 <printf>
    exit(1);
    36ba:	4505                	li	a0,1
    36bc:	00001097          	auipc	ra,0x1
    36c0:	24c080e7          	jalr	588(ra) # 4908 <exit>
        nc++;
    36c4:	2985                	addiw	s3,s3,1
    for(i = 0; i < sizeof(buf); i++){
    36c6:	0785                	addi	a5,a5,1
    36c8:	fd2784e3          	beq	a5,s2,3690 <sharedfd+0x11e>
      if(buf[i] == 'c')
    36cc:	0007c703          	lbu	a4,0(a5)
    36d0:	fe970ae3          	beq	a4,s1,36c4 <sharedfd+0x152>
      if(buf[i] == 'p')
    36d4:	ff6719e3          	bne	a4,s6,36c6 <sharedfd+0x154>
        np++;
    36d8:	2a05                	addiw	s4,s4,1
    36da:	b7f5                	j	36c6 <sharedfd+0x154>
  close(fd);
    36dc:	855e                	mv	a0,s7
    36de:	00001097          	auipc	ra,0x1
    36e2:	252080e7          	jalr	594(ra) # 4930 <close>
  remove("sharedfd");
    36e6:	00002517          	auipc	a0,0x2
    36ea:	8ca50513          	addi	a0,a0,-1846 # 4fb0 <malloc+0x24c>
    36ee:	00001097          	auipc	ra,0x1
    36f2:	2c2080e7          	jalr	706(ra) # 49b0 <remove>
  if(nc == N*SZ && np == N*SZ){
    36f6:	6789                	lui	a5,0x2
    36f8:	71078793          	addi	a5,a5,1808 # 2710 <subdir+0x1b6>
    36fc:	00f99763          	bne	s3,a5,370a <sharedfd+0x198>
    3700:	6789                	lui	a5,0x2
    3702:	71078793          	addi	a5,a5,1808 # 2710 <subdir+0x1b6>
    3706:	02fa0063          	beq	s4,a5,3726 <sharedfd+0x1b4>
    printf("%s: nc/np test fails\n", s);
    370a:	85d6                	mv	a1,s5
    370c:	00003517          	auipc	a0,0x3
    3710:	efc50513          	addi	a0,a0,-260 # 6608 <malloc+0x18a4>
    3714:	00001097          	auipc	ra,0x1
    3718:	592080e7          	jalr	1426(ra) # 4ca6 <printf>
    exit(1);
    371c:	4505                	li	a0,1
    371e:	00001097          	auipc	ra,0x1
    3722:	1ea080e7          	jalr	490(ra) # 4908 <exit>
    exit(0);
    3726:	4501                	li	a0,0
    3728:	00001097          	auipc	ra,0x1
    372c:	1e0080e7          	jalr	480(ra) # 4908 <exit>

0000000000003730 <fourfiles>:
{
    3730:	7171                	addi	sp,sp,-176
    3732:	f506                	sd	ra,168(sp)
    3734:	f122                	sd	s0,160(sp)
    3736:	ed26                	sd	s1,152(sp)
    3738:	e94a                	sd	s2,144(sp)
    373a:	e54e                	sd	s3,136(sp)
    373c:	e152                	sd	s4,128(sp)
    373e:	fcd6                	sd	s5,120(sp)
    3740:	f8da                	sd	s6,112(sp)
    3742:	f4de                	sd	s7,104(sp)
    3744:	f0e2                	sd	s8,96(sp)
    3746:	ece6                	sd	s9,88(sp)
    3748:	e8ea                	sd	s10,80(sp)
    374a:	e4ee                	sd	s11,72(sp)
    374c:	1900                	addi	s0,sp,176
    374e:	f4a43c23          	sd	a0,-168(s0)
  char *names[] = { "f0", "f1", "f2", "f3" };
    3752:	00001797          	auipc	a5,0x1
    3756:	6fe78793          	addi	a5,a5,1790 # 4e50 <malloc+0xec>
    375a:	f6f43823          	sd	a5,-144(s0)
    375e:	00001797          	auipc	a5,0x1
    3762:	6fa78793          	addi	a5,a5,1786 # 4e58 <malloc+0xf4>
    3766:	f6f43c23          	sd	a5,-136(s0)
    376a:	00001797          	auipc	a5,0x1
    376e:	6f678793          	addi	a5,a5,1782 # 4e60 <malloc+0xfc>
    3772:	f8f43023          	sd	a5,-128(s0)
    3776:	00001797          	auipc	a5,0x1
    377a:	6f278793          	addi	a5,a5,1778 # 4e68 <malloc+0x104>
    377e:	f8f43423          	sd	a5,-120(s0)
  for(pi = 0; pi < NCHILD; pi++){
    3782:	f7040c93          	addi	s9,s0,-144
  char *names[] = { "f0", "f1", "f2", "f3" };
    3786:	8966                	mv	s2,s9
  for(pi = 0; pi < NCHILD; pi++){
    3788:	4481                	li	s1,0
    378a:	4a11                	li	s4,4
    fname = names[pi];
    378c:	00093983          	ld	s3,0(s2)
    remove(fname);
    3790:	854e                	mv	a0,s3
    3792:	00001097          	auipc	ra,0x1
    3796:	21e080e7          	jalr	542(ra) # 49b0 <remove>
    pid = fork();
    379a:	00001097          	auipc	ra,0x1
    379e:	166080e7          	jalr	358(ra) # 4900 <fork>
    if(pid < 0){
    37a2:	04054a63          	bltz	a0,37f6 <fourfiles+0xc6>
    if(pid == 0){
    37a6:	c53d                	beqz	a0,3814 <fourfiles+0xe4>
  for(pi = 0; pi < NCHILD; pi++){
    37a8:	2485                	addiw	s1,s1,1
    37aa:	0921                	addi	s2,s2,8
    37ac:	ff4490e3          	bne	s1,s4,378c <fourfiles+0x5c>
    37b0:	4491                	li	s1,4
    wait(&xstatus);
    37b2:	f6c40913          	addi	s2,s0,-148
    37b6:	854a                	mv	a0,s2
    37b8:	00001097          	auipc	ra,0x1
    37bc:	158080e7          	jalr	344(ra) # 4910 <wait>
    if(xstatus != 0)
    37c0:	f6c42b83          	lw	s7,-148(s0)
    37c4:	0e0b9363          	bnez	s7,38aa <fourfiles+0x17a>
  for(pi = 0; pi < NCHILD; pi++){
    37c8:	34fd                	addiw	s1,s1,-1
    37ca:	f4f5                	bnez	s1,37b6 <fourfiles+0x86>
    37cc:	03000c13          	li	s8,48
    while((n = read(fd, buf, sizeof(buf))) > 0){
    37d0:	6a09                	lui	s4,0x2
    37d2:	800a0a13          	addi	s4,s4,-2048 # 1800 <forkfork+0x3e>
    37d6:	00007a97          	auipc	s5,0x7
    37da:	04aa8a93          	addi	s5,s5,74 # a820 <buf>
    37de:	00007b17          	auipc	s6,0x7
    37e2:	043b0b13          	addi	s6,s6,67 # a821 <buf+0x1>
    if(total != N*SZ){
    37e6:	6785                	lui	a5,0x1
    37e8:	77078793          	addi	a5,a5,1904 # 1770 <twochildren+0x48>
    37ec:	f4f43823          	sd	a5,-176(s0)
  for(i = 0; i < NCHILD; i++){
    37f0:	03400d93          	li	s11,52
    37f4:	aa2d                	j	392e <fourfiles+0x1fe>
      printf("fork failed\n", s);
    37f6:	f5843583          	ld	a1,-168(s0)
    37fa:	00002517          	auipc	a0,0x2
    37fe:	37e50513          	addi	a0,a0,894 # 5b78 <malloc+0xe14>
    3802:	00001097          	auipc	ra,0x1
    3806:	4a4080e7          	jalr	1188(ra) # 4ca6 <printf>
      exit(1);
    380a:	4505                	li	a0,1
    380c:	00001097          	auipc	ra,0x1
    3810:	0fc080e7          	jalr	252(ra) # 4908 <exit>
      fd = open(fname, O_CREATE | O_RDWR);
    3814:	20200593          	li	a1,514
    3818:	854e                	mv	a0,s3
    381a:	00001097          	auipc	ra,0x1
    381e:	12e080e7          	jalr	302(ra) # 4948 <open>
    3822:	892a                	mv	s2,a0
      if(fd < 0){
    3824:	04054763          	bltz	a0,3872 <fourfiles+0x142>
      memset(buf, '0'+pi, SZ);
    3828:	1f400613          	li	a2,500
    382c:	0304859b          	addiw	a1,s1,48
    3830:	00007517          	auipc	a0,0x7
    3834:	ff050513          	addi	a0,a0,-16 # a820 <buf>
    3838:	00001097          	auipc	ra,0x1
    383c:	eb8080e7          	jalr	-328(ra) # 46f0 <memset>
    3840:	44b1                	li	s1,12
        if((n = write(fd, buf, SZ)) != SZ){
    3842:	00007997          	auipc	s3,0x7
    3846:	fde98993          	addi	s3,s3,-34 # a820 <buf>
    384a:	1f400613          	li	a2,500
    384e:	85ce                	mv	a1,s3
    3850:	854a                	mv	a0,s2
    3852:	00001097          	auipc	ra,0x1
    3856:	0d6080e7          	jalr	214(ra) # 4928 <write>
    385a:	85aa                	mv	a1,a0
    385c:	1f400793          	li	a5,500
    3860:	02f51863          	bne	a0,a5,3890 <fourfiles+0x160>
      for(i = 0; i < N; i++){
    3864:	34fd                	addiw	s1,s1,-1
    3866:	f0f5                	bnez	s1,384a <fourfiles+0x11a>
      exit(0);
    3868:	4501                	li	a0,0
    386a:	00001097          	auipc	ra,0x1
    386e:	09e080e7          	jalr	158(ra) # 4908 <exit>
        printf("create failed\n", s);
    3872:	f5843583          	ld	a1,-168(s0)
    3876:	00003517          	auipc	a0,0x3
    387a:	daa50513          	addi	a0,a0,-598 # 6620 <malloc+0x18bc>
    387e:	00001097          	auipc	ra,0x1
    3882:	428080e7          	jalr	1064(ra) # 4ca6 <printf>
        exit(1);
    3886:	4505                	li	a0,1
    3888:	00001097          	auipc	ra,0x1
    388c:	080080e7          	jalr	128(ra) # 4908 <exit>
          printf("write failed %d\n", n);
    3890:	00003517          	auipc	a0,0x3
    3894:	da050513          	addi	a0,a0,-608 # 6630 <malloc+0x18cc>
    3898:	00001097          	auipc	ra,0x1
    389c:	40e080e7          	jalr	1038(ra) # 4ca6 <printf>
          exit(1);
    38a0:	4505                	li	a0,1
    38a2:	00001097          	auipc	ra,0x1
    38a6:	066080e7          	jalr	102(ra) # 4908 <exit>
      exit(xstatus);
    38aa:	855e                	mv	a0,s7
    38ac:	00001097          	auipc	ra,0x1
    38b0:	05c080e7          	jalr	92(ra) # 4908 <exit>
          printf("wrong char\n", s);
    38b4:	f5843583          	ld	a1,-168(s0)
    38b8:	00003517          	auipc	a0,0x3
    38bc:	d9050513          	addi	a0,a0,-624 # 6648 <malloc+0x18e4>
    38c0:	00001097          	auipc	ra,0x1
    38c4:	3e6080e7          	jalr	998(ra) # 4ca6 <printf>
          exit(1);
    38c8:	4505                	li	a0,1
    38ca:	00001097          	auipc	ra,0x1
    38ce:	03e080e7          	jalr	62(ra) # 4908 <exit>
      total += n;
    38d2:	00a9093b          	addw	s2,s2,a0
    while((n = read(fd, buf, sizeof(buf))) > 0){
    38d6:	8652                	mv	a2,s4
    38d8:	85d6                	mv	a1,s5
    38da:	854e                	mv	a0,s3
    38dc:	00001097          	auipc	ra,0x1
    38e0:	044080e7          	jalr	68(ra) # 4920 <read>
    38e4:	02a05363          	blez	a0,390a <fourfiles+0x1da>
    38e8:	00007797          	auipc	a5,0x7
    38ec:	f3878793          	addi	a5,a5,-200 # a820 <buf>
    38f0:	fff5069b          	addiw	a3,a0,-1
    38f4:	1682                	slli	a3,a3,0x20
    38f6:	9281                	srli	a3,a3,0x20
    38f8:	96da                	add	a3,a3,s6
        if(buf[j] != '0'+i){
    38fa:	0007c703          	lbu	a4,0(a5)
    38fe:	fa971be3          	bne	a4,s1,38b4 <fourfiles+0x184>
      for(j = 0; j < n; j++){
    3902:	0785                	addi	a5,a5,1
    3904:	fed79be3          	bne	a5,a3,38fa <fourfiles+0x1ca>
    3908:	b7e9                	j	38d2 <fourfiles+0x1a2>
    close(fd);
    390a:	854e                	mv	a0,s3
    390c:	00001097          	auipc	ra,0x1
    3910:	024080e7          	jalr	36(ra) # 4930 <close>
    if(total != N*SZ){
    3914:	f5043783          	ld	a5,-176(s0)
    3918:	02f91863          	bne	s2,a5,3948 <fourfiles+0x218>
    remove(fname);
    391c:	856a                	mv	a0,s10
    391e:	00001097          	auipc	ra,0x1
    3922:	092080e7          	jalr	146(ra) # 49b0 <remove>
  for(i = 0; i < NCHILD; i++){
    3926:	0ca1                	addi	s9,s9,8
    3928:	2c05                	addiw	s8,s8,1
    392a:	03bc0d63          	beq	s8,s11,3964 <fourfiles+0x234>
    fname = names[i];
    392e:	000cbd03          	ld	s10,0(s9)
    fd = open(fname, 0);
    3932:	4581                	li	a1,0
    3934:	856a                	mv	a0,s10
    3936:	00001097          	auipc	ra,0x1
    393a:	012080e7          	jalr	18(ra) # 4948 <open>
    393e:	89aa                	mv	s3,a0
    total = 0;
    3940:	895e                	mv	s2,s7
        if(buf[j] != '0'+i){
    3942:	000c049b          	sext.w	s1,s8
    while((n = read(fd, buf, sizeof(buf))) > 0){
    3946:	bf41                	j	38d6 <fourfiles+0x1a6>
      printf("wrong length %d\n", total);
    3948:	85ca                	mv	a1,s2
    394a:	00003517          	auipc	a0,0x3
    394e:	d0e50513          	addi	a0,a0,-754 # 6658 <malloc+0x18f4>
    3952:	00001097          	auipc	ra,0x1
    3956:	354080e7          	jalr	852(ra) # 4ca6 <printf>
      exit(1);
    395a:	4505                	li	a0,1
    395c:	00001097          	auipc	ra,0x1
    3960:	fac080e7          	jalr	-84(ra) # 4908 <exit>
}
    3964:	70aa                	ld	ra,168(sp)
    3966:	740a                	ld	s0,160(sp)
    3968:	64ea                	ld	s1,152(sp)
    396a:	694a                	ld	s2,144(sp)
    396c:	69aa                	ld	s3,136(sp)
    396e:	6a0a                	ld	s4,128(sp)
    3970:	7ae6                	ld	s5,120(sp)
    3972:	7b46                	ld	s6,112(sp)
    3974:	7ba6                	ld	s7,104(sp)
    3976:	7c06                	ld	s8,96(sp)
    3978:	6ce6                	ld	s9,88(sp)
    397a:	6d46                	ld	s10,80(sp)
    397c:	6da6                	ld	s11,72(sp)
